---
triple:          'arm64-apple-darwin'
binary-path:     '/Users/j_work/Stuff/SecurityResearch/timing/timing/benchmark'
relocations:
  - { offsetInCU: 0x3F, offset: 0x3F, size: 0x8, addend: 0x0, symName: _collector, symObjAddr: 0x44D88, symBinAddr: 0x100010088, symSize: 0x0 }
  - { offsetInCU: 0x9A7, offset: 0x9A7, size: 0x8, addend: 0x0, symName: __ZNSt3__16chronomiB8ue170006IxNS_5ratioILl1ELl1000000000EEExS3_EENS_11common_typeIJNS0_8durationIT_T0_EENS5_IT1_T2_EEEE4typeERKS8_RKSB_, symObjAddr: 0x7078, symBinAddr: 0x100009290, symSize: 0x70 }
  - { offsetInCU: 0xA5F, offset: 0xA5F, size: 0x8, addend: 0x0, symName: __ZNSt3__16chronoplB8ue170006IdNS_5ratioILl1ELl1EEEdS3_EENS_11common_typeIJNS0_8durationIT_T0_EENS5_IT1_T2_EEEE4typeERKS8_RKSB_, symObjAddr: 0x8468, symBinAddr: 0x10000A680, symSize: 0x70 }
  - { offsetInCU: 0xB14, offset: 0xB14, size: 0x8, addend: 0x0, symName: __ZNSt3__16chrono13duration_castB8ue170006INS0_8durationIdNS_5ratioILl1ELl1000000000EEEEEdNS3_ILl1ELl1EEEEENS_9enable_ifIXsr13__is_durationIT_EE5valueES8_E4typeERKNS2_IT0_T1_EE, symObjAddr: 0x4B78, symBinAddr: 0x100006D90, symSize: 0x30 }
  - { offsetInCU: 0xB5B, offset: 0xB5B, size: 0x8, addend: 0x0, symName: __ZNSt3__16chronomiB8ue170006INS0_12steady_clockENS0_8durationIxNS_5ratioILl1ELl1000000000EEEEES6_EENS_11common_typeIJT0_T1_EE4typeERKNS0_10time_pointIT_S8_EERKNSC_ISD_S9_EE, symObjAddr: 0x6F54, symBinAddr: 0x10000916C, symSize: 0x58 }
  - { offsetInCU: 0xBB3, offset: 0xBB3, size: 0x8, addend: 0x0, symName: __ZNSt3__16chrono13duration_castB8ue170006INS0_8durationIdNS_5ratioILl1ELl1EEEEExNS3_ILl1ELl1000000000EEEEENS_9enable_ifIXsr13__is_durationIT_EE5valueES8_E4typeERKNS2_IT0_T1_EE, symObjAddr: 0x7168, symBinAddr: 0x100009380, symSize: 0x30 }
  - { offsetInCU: 0xBFA, offset: 0xBFA, size: 0x8, addend: 0x0, symName: __ZNSt3__16chronoltB8ue170006IdNS_5ratioILl1ELl1EEEdS3_EEbRKNS0_8durationIT_T0_EERKNS4_IT1_T2_EE, symObjAddr: 0x7A84, symBinAddr: 0x100009C9C, symSize: 0x34 }
  - { offsetInCU: 0xC5B, offset: 0xC5B, size: 0x8, addend: 0x0, symName: __ZNSt3__16chronogtB8ue170006IdNS_5ratioILl1ELl1EEEdS3_EEbRKNS0_8durationIT_T0_EERKNS4_IT1_T2_EE, symObjAddr: 0x7B00, symBinAddr: 0x100009D18, symSize: 0x30 }
  - { offsetInCU: 0x5316, offset: 0x5316, size: 0x8, addend: 0x0, symName: __ZNSt3__16copy_nB8ue170006IPKcmPcEENS_9enable_ifIXsr37__has_random_access_iterator_categoryIT_EE5valueET1_E4typeES5_T0_S6_, symObjAddr: 0x5A58, symBinAddr: 0x100007C70, symSize: 0x44 }
  - { offsetInCU: 0x539D, offset: 0x539D, size: 0x8, addend: 0x0, symName: __ZNSt3__124__put_character_sequenceB8ue170006IcNS_11char_traitsIcEEEERNS_13basic_ostreamIT_T0_EES7_PKS4_m, symObjAddr: 0x6214, symBinAddr: 0x10000842C, symSize: 0x1EC }
  - { offsetInCU: 0x6206, offset: 0x6206, size: 0x8, addend: 0x0, symName: __ZNSt3__17advanceB8ue170006IPyllvEEvRT_T0_, symObjAddr: 0x8048, symBinAddr: 0x10000A260, symSize: 0x38 }
  - { offsetInCU: 0x79D9, offset: 0x79D9, size: 0x8, addend: 0x0, symName: __ZNSt3__1plB8ue170006IcNS_11char_traitsIcEENS_9allocatorIcEEEENS_12basic_stringIT_T0_T1_EERKS9_PKS6_, symObjAddr: 0xA88, symBinAddr: 0x100002CA0, symSize: 0x11C }
  - { offsetInCU: 0x7A7A, offset: 0x7A7A, size: 0x8, addend: 0x0, symName: __ZNSt3__1lsB8ue170006INS_11char_traitsIcEEEERNS_13basic_ostreamIcT_EES6_PKc, symObjAddr: 0xBA4, symBinAddr: 0x100002DBC, symSize: 0x48 }
  - { offsetInCU: 0x7AC0, offset: 0x7AC0, size: 0x8, addend: 0x0, symName: __ZNSt3__1lsB8ue170006IcNS_11char_traitsIcEENS_9allocatorIcEEEERNS_13basic_ostreamIT_T0_EES9_RKNS_12basic_stringIS6_S7_T1_EE, symObjAddr: 0xBEC, symBinAddr: 0x100002E04, symSize: 0x4C }
  - { offsetInCU: 0x7B23, offset: 0x7B23, size: 0x8, addend: 0x0, symName: __ZNSt3__14endlB8ue170006IcNS_11char_traitsIcEEEERNS_13basic_ostreamIT_T0_EES7_, symObjAddr: 0x1FE8, symBinAddr: 0x100004200, symSize: 0x58 }
  - { offsetInCU: 0x7B7F, offset: 0x7B7F, size: 0x8, addend: 0x0, symName: __ZNSt3__122__make_exception_guardB8ue170006INS_6vectorIyNS_9allocatorIyEEE16__destroy_vectorEEENS_28__exception_guard_exceptionsIT_EES7_, symObjAddr: 0x2C3C, symBinAddr: 0x100004E54, symSize: 0x40 }
  - { offsetInCU: 0x7BB4, offset: 0x7BB4, size: 0x8, addend: 0x0, symName: __ZNSt3__119__allocate_at_leastB8ue170006INS_9allocatorIyEEEENS_19__allocation_resultINS_16allocator_traitsIT_E7pointerEEERS5_m, symObjAddr: 0x303C, symBinAddr: 0x100005254, symSize: 0x40 }
  - { offsetInCU: 0x7BF7, offset: 0x7BF7, size: 0x8, addend: 0x0, symName: __ZNSt3__13minB8ue170006ImEERKT_S3_S3_, symObjAddr: 0x3178, symBinAddr: 0x100005390, symSize: 0x2C }
  - { offsetInCU: 0x7E3B, offset: 0x7E3B, size: 0x8, addend: 0x0, symName: __ZNSt3__13minB8ue170006ImNS_6__lessIvvEEEERKT_S5_S5_T0_, symObjAddr: 0x3210, symBinAddr: 0x100005428, symSize: 0x54 }
  - { offsetInCU: 0x7EDA, offset: 0x7EDA, size: 0x8, addend: 0x0, symName: __ZNSt3__120__throw_length_errorB8ue170006EPKc, symObjAddr: 0x32EC, symBinAddr: 0x100005504, symSize: 0x64 }
  - { offsetInCU: 0x7F04, offset: 0x7F04, size: 0x8, addend: 0x0, symName: __ZNSt3__117__libcpp_allocateB8ue170006Emm, symObjAddr: 0x345C, symBinAddr: 0x100005674, symSize: 0x28 }
  - { offsetInCU: 0x7F41, offset: 0x7F41, size: 0x8, addend: 0x0, symName: __ZNSt3__121__libcpp_operator_newB8ue170006IJmEEEPvDpT_, symObjAddr: 0x3484, symBinAddr: 0x10000569C, symSize: 0x24 }
  - { offsetInCU: 0x7F7A, offset: 0x7F7A, size: 0x8, addend: 0x0, symName: __ZNSt3__112__to_addressB8ue170006IyEEPT_S2_, symObjAddr: 0x35A0, symBinAddr: 0x1000057B8, symSize: 0x14 }
  - { offsetInCU: 0x7FAF, offset: 0x7FAF, size: 0x8, addend: 0x0, symName: __ZNSt3__130__uninitialized_allocator_copyB8ue170006INS_9allocatorIyEEPKyS4_PyEET2_RT_T0_T1_S6_, symObjAddr: 0x3650, symBinAddr: 0x100005868, symSize: 0x80 }
  - { offsetInCU: 0x804C, offset: 0x804C, size: 0x8, addend: 0x0, symName: __ZNSt3__114__unwrap_rangeB8ue170006IPKyS2_EENS_4pairIT0_S4_EET_S6_, symObjAddr: 0x3740, symBinAddr: 0x100005958, symSize: 0x60 }
  - { offsetInCU: 0x8098, offset: 0x8098, size: 0x8, addend: 0x0, symName: __ZNSt3__135__uninitialized_allocator_copy_implB8ue170006INS_9allocatorIyEEKyyyLPv0EEEPT2_RT_PT0_SA_S6_, symObjAddr: 0x37A0, symBinAddr: 0x1000059B8, symSize: 0x38 }
  - { offsetInCU: 0x8119, offset: 0x8119, size: 0x8, addend: 0x0, symName: __ZNSt3__113__unwrap_iterB8ue170006IPyNS_18__unwrap_iter_implIS1_Lb1EEELi0EEEDTclsrT0_8__unwrapclsr3stdE7declvalIT_EEEES5_, symObjAddr: 0x37D8, symBinAddr: 0x1000059F0, symSize: 0x24 }
  - { offsetInCU: 0x815D, offset: 0x815D, size: 0x8, addend: 0x0, symName: __ZNSt3__113__rewrap_iterB8ue170006IPyS1_NS_18__unwrap_iter_implIS1_Lb1EEEEET_S4_T0_, symObjAddr: 0x37FC, symBinAddr: 0x100005A14, symSize: 0x3C }
  - { offsetInCU: 0x81B2, offset: 0x81B2, size: 0x8, addend: 0x0, symName: __ZNSt3__19make_pairB8ue170006IPKyS2_EENS_4pairINS_18__unwrap_ref_decayIT_E4typeENS4_IT0_E4typeEEEOS5_OS8_, symObjAddr: 0x3838, symBinAddr: 0x100005A50, symSize: 0x38 }
  - { offsetInCU: 0x8201, offset: 0x8201, size: 0x8, addend: 0x0, symName: __ZNSt3__113__unwrap_iterB8ue170006IPKyNS_18__unwrap_iter_implIS2_Lb1EEELi0EEEDTclsrT0_8__unwrapclsr3stdE7declvalIT_EEEES6_, symObjAddr: 0x3870, symBinAddr: 0x100005A88, symSize: 0x24 }
  - { offsetInCU: 0x836C, offset: 0x836C, size: 0x8, addend: 0x0, symName: __ZNSt3__112__to_addressB8ue170006IKyEEPT_S3_, symObjAddr: 0x3928, symBinAddr: 0x100005B40, symSize: 0x14 }
  - { offsetInCU: 0x83A1, offset: 0x83A1, size: 0x8, addend: 0x0, symName: __ZNSt3__14copyB8ue170006IPKyPyEET0_T_S5_S4_, symObjAddr: 0x393C, symBinAddr: 0x100005B54, symSize: 0x40 }
  - { offsetInCU: 0x83FB, offset: 0x83FB, size: 0x8, addend: 0x0, symName: __ZNSt3__16__copyB8ue170006INS_17_ClassicAlgPolicyEPKyS3_PyEENS_4pairIT0_T2_EES6_T1_S7_, symObjAddr: 0x397C, symBinAddr: 0x100005B94, symSize: 0x44 }
  - { offsetInCU: 0x8467, offset: 0x8467, size: 0x8, addend: 0x0, symName: __ZNSt3__123__dispatch_copy_or_moveB8ue170006INS_17_ClassicAlgPolicyENS_11__copy_loopIS1_EENS_14__copy_trivialEPKyS6_PyEENS_4pairIT2_T4_EES9_T3_SA_, symObjAddr: 0x39C0, symBinAddr: 0x100005BD8, symSize: 0x44 }
  - { offsetInCU: 0x84E5, offset: 0x84E5, size: 0x8, addend: 0x0, symName: __ZNSt3__121__unwrap_and_dispatchB8ue170006INS_10__overloadINS_11__copy_loopINS_17_ClassicAlgPolicyEEENS_14__copy_trivialEEEPKyS8_PyLi0EEENS_4pairIT0_T2_EESB_T1_SC_, symObjAddr: 0x3A04, symBinAddr: 0x100005C1C, symSize: 0xB4 }
  - { offsetInCU: 0x8734, offset: 0x8734, size: 0x8, addend: 0x0, symName: __ZNSt3__19make_pairB8ue170006IPKyPyEENS_4pairINS_18__unwrap_ref_decayIT_E4typeENS5_IT0_E4typeEEEOS6_OS9_, symObjAddr: 0x3B00, symBinAddr: 0x100005D18, symSize: 0x38 }
  - { offsetInCU: 0x8783, offset: 0x8783, size: 0x8, addend: 0x0, symName: __ZNSt3__114__rewrap_rangeB8ue170006IPKyS2_EET_S3_T0_, symObjAddr: 0x3B38, symBinAddr: 0x100005D50, symSize: 0x2C }
  - { offsetInCU: 0x87CF, offset: 0x87CF, size: 0x8, addend: 0x0, symName: __ZNSt3__119__copy_trivial_implB8ue170006IKyyEENS_4pairIPT_PT0_EES4_S4_S6_, symObjAddr: 0x3B64, symBinAddr: 0x100005D7C, symSize: 0x80 }
  - { offsetInCU: 0x8837, offset: 0x8837, size: 0x8, addend: 0x0, symName: __ZNSt3__119__constexpr_memmoveB8ue170006IyKyLi0EEEPT_S3_PT0_NS_15__element_countE, symObjAddr: 0x3BE4, symBinAddr: 0x100005DFC, symSize: 0x64 }
  - { offsetInCU: 0x88A5, offset: 0x88A5, size: 0x8, addend: 0x0, symName: __ZNSt3__19make_pairB8ue170006IRPKyPyEENS_4pairINS_18__unwrap_ref_decayIT_E4typeENS6_IT0_E4typeEEEOS7_OSA_, symObjAddr: 0x3C48, symBinAddr: 0x100005E60, symSize: 0x38 }
  - { offsetInCU: 0x88F4, offset: 0x88F4, size: 0x8, addend: 0x0, symName: __ZNSt3__113__rewrap_iterB8ue170006IPKyS2_NS_18__unwrap_iter_implIS2_Lb1EEEEET_S5_T0_, symObjAddr: 0x3D60, symBinAddr: 0x100005F78, symSize: 0x3C }
  - { offsetInCU: 0x899C, offset: 0x899C, size: 0x8, addend: 0x0, symName: __ZNSt3__119__libcpp_deallocateB8ue170006EPvmm, symObjAddr: 0x41A8, symBinAddr: 0x1000063C0, symSize: 0x30 }
  - { offsetInCU: 0x89E4, offset: 0x89E4, size: 0x8, addend: 0x0, symName: __ZNSt3__127__do_deallocate_handle_sizeB8ue170006IJEEEvPvmDpT_, symObjAddr: 0x41D8, symBinAddr: 0x1000063F0, symSize: 0x28 }
  - { offsetInCU: 0x8A22, offset: 0x8A22, size: 0x8, addend: 0x0, symName: __ZNSt3__124__libcpp_operator_deleteB8ue170006IJPvEEEvDpT_, symObjAddr: 0x4200, symBinAddr: 0x100006418, symSize: 0x24 }
  - { offsetInCU: 0x8A57, offset: 0x8A57, size: 0x8, addend: 0x0, symName: __ZNSt3__112__to_addressB8ue170006IKcEEPT_S3_, symObjAddr: 0x4D90, symBinAddr: 0x100006FA8, symSize: 0x14 }
  - { offsetInCU: 0x8ABF, offset: 0x8ABF, size: 0x8, addend: 0x0, symName: __ZNSt3__118__constexpr_strlenB8ue170006EPKc, symObjAddr: 0x5050, symBinAddr: 0x100007268, symSize: 0x24 }
  - { offsetInCU: 0x8AEB, offset: 0x8AEB, size: 0x8, addend: 0x0, symName: __ZNSt3__112__to_addressB8ue170006IcEEPT_S2_, symObjAddr: 0x524C, symBinAddr: 0x100007464, symSize: 0x14 }
  - { offsetInCU: 0x8D55, offset: 0x8D55, size: 0x8, addend: 0x0, symName: __ZNSt3__14copyB8ue170006IPKcPcEET0_T_S5_S4_, symObjAddr: 0x5A9C, symBinAddr: 0x100007CB4, symSize: 0x40 }
  - { offsetInCU: 0x8DAF, offset: 0x8DAF, size: 0x8, addend: 0x0, symName: __ZNSt3__16__copyB8ue170006INS_17_ClassicAlgPolicyEPKcS3_PcEENS_4pairIT0_T2_EES6_T1_S7_, symObjAddr: 0x5ADC, symBinAddr: 0x100007CF4, symSize: 0x44 }
  - { offsetInCU: 0x8E1B, offset: 0x8E1B, size: 0x8, addend: 0x0, symName: __ZNSt3__123__dispatch_copy_or_moveB8ue170006INS_17_ClassicAlgPolicyENS_11__copy_loopIS1_EENS_14__copy_trivialEPKcS6_PcEENS_4pairIT2_T4_EES9_T3_SA_, symObjAddr: 0x5B20, symBinAddr: 0x100007D38, symSize: 0x44 }
  - { offsetInCU: 0x8E99, offset: 0x8E99, size: 0x8, addend: 0x0, symName: __ZNSt3__121__unwrap_and_dispatchB8ue170006INS_10__overloadINS_11__copy_loopINS_17_ClassicAlgPolicyEEENS_14__copy_trivialEEEPKcS8_PcLi0EEENS_4pairIT0_T2_EESB_T1_SC_, symObjAddr: 0x5B64, symBinAddr: 0x100007D7C, symSize: 0xB4 }
  - { offsetInCU: 0x8F27, offset: 0x8F27, size: 0x8, addend: 0x0, symName: __ZNSt3__114__unwrap_rangeB8ue170006IPKcS2_EENS_4pairIT0_S4_EET_S6_, symObjAddr: 0x5C18, symBinAddr: 0x100007E30, symSize: 0x60 }
  - { offsetInCU: 0x9076, offset: 0x9076, size: 0x8, addend: 0x0, symName: __ZNSt3__113__unwrap_iterB8ue170006IPcNS_18__unwrap_iter_implIS1_Lb1EEELi0EEEDTclsrT0_8__unwrapclsr3stdE7declvalIT_EEEES5_, symObjAddr: 0x5CC0, symBinAddr: 0x100007ED8, symSize: 0x24 }
  - { offsetInCU: 0x90BA, offset: 0x90BA, size: 0x8, addend: 0x0, symName: __ZNSt3__19make_pairB8ue170006IPKcPcEENS_4pairINS_18__unwrap_ref_decayIT_E4typeENS5_IT0_E4typeEEEOS6_OS9_, symObjAddr: 0x5CE4, symBinAddr: 0x100007EFC, symSize: 0x38 }
  - { offsetInCU: 0x9109, offset: 0x9109, size: 0x8, addend: 0x0, symName: __ZNSt3__114__rewrap_rangeB8ue170006IPKcS2_EET_S3_T0_, symObjAddr: 0x5D1C, symBinAddr: 0x100007F34, symSize: 0x2C }
  - { offsetInCU: 0x9155, offset: 0x9155, size: 0x8, addend: 0x0, symName: __ZNSt3__113__rewrap_iterB8ue170006IPcS1_NS_18__unwrap_iter_implIS1_Lb1EEEEET_S4_T0_, symObjAddr: 0x5D48, symBinAddr: 0x100007F60, symSize: 0x3C }
  - { offsetInCU: 0x91AA, offset: 0x91AA, size: 0x8, addend: 0x0, symName: __ZNSt3__19make_pairB8ue170006IPKcS2_EENS_4pairINS_18__unwrap_ref_decayIT_E4typeENS4_IT0_E4typeEEEOS5_OS8_, symObjAddr: 0x5D84, symBinAddr: 0x100007F9C, symSize: 0x38 }
  - { offsetInCU: 0x91F9, offset: 0x91F9, size: 0x8, addend: 0x0, symName: __ZNSt3__113__unwrap_iterB8ue170006IPKcNS_18__unwrap_iter_implIS2_Lb1EEELi0EEEDTclsrT0_8__unwrapclsr3stdE7declvalIT_EEEES6_, symObjAddr: 0x5DBC, symBinAddr: 0x100007FD4, symSize: 0x24 }
  - { offsetInCU: 0x9364, offset: 0x9364, size: 0x8, addend: 0x0, symName: __ZNSt3__119__copy_trivial_implB8ue170006IKccEENS_4pairIPT_PT0_EES4_S4_S6_, symObjAddr: 0x5E74, symBinAddr: 0x10000808C, symSize: 0x78 }
  - { offsetInCU: 0x93CC, offset: 0x93CC, size: 0x8, addend: 0x0, symName: __ZNSt3__119__constexpr_memmoveB8ue170006IcKcLi0EEEPT_S3_PT0_NS_15__element_countE, symObjAddr: 0x5EEC, symBinAddr: 0x100008104, symSize: 0x64 }
  - { offsetInCU: 0x943A, offset: 0x943A, size: 0x8, addend: 0x0, symName: __ZNSt3__19make_pairB8ue170006IRPKcPcEENS_4pairINS_18__unwrap_ref_decayIT_E4typeENS6_IT0_E4typeEEEOS7_OSA_, symObjAddr: 0x5F50, symBinAddr: 0x100008168, symSize: 0x38 }
  - { offsetInCU: 0x94DC, offset: 0x94DC, size: 0x8, addend: 0x0, symName: __ZNSt3__113__rewrap_iterB8ue170006IPKcS2_NS_18__unwrap_iter_implIS2_Lb1EEEEET_S5_T0_, symObjAddr: 0x608C, symBinAddr: 0x1000082A4, symSize: 0x3C }
  - { offsetInCU: 0x9531, offset: 0x9531, size: 0x8, addend: 0x0, symName: __ZNSt3__16fill_nB8ue170006IPcmcEET_S2_T0_RKT1_, symObjAddr: 0x6158, symBinAddr: 0x100008370, symSize: 0x44 }
  - { offsetInCU: 0x9594, offset: 0x9594, size: 0x8, addend: 0x0, symName: __ZNSt3__18__fill_nB8ue170006IPcmcEET_S2_T0_RKT1_, symObjAddr: 0x619C, symBinAddr: 0x1000083B4, symSize: 0x64 }
  - { offsetInCU: 0x95F7, offset: 0x95F7, size: 0x8, addend: 0x0, symName: __ZNSt3__121__convert_to_integralB8ue170006Em, symObjAddr: 0x6200, symBinAddr: 0x100008418, symSize: 0x14 }
  - { offsetInCU: 0x9623, offset: 0x9623, size: 0x8, addend: 0x0, symName: __ZNSt3__116__pad_and_outputB8ue170006IcNS_11char_traitsIcEEEENS_19ostreambuf_iteratorIT_T0_EES6_PKS4_S8_S8_RNS_8ios_baseES4_, symObjAddr: 0x641C, symBinAddr: 0x100008634, symSize: 0x240 }
  - { offsetInCU: 0x96F2, offset: 0x96F2, size: 0x8, addend: 0x0, symName: __ZNSt3__19use_facetB8ue170006INS_5ctypeIcEEEERKT_RKNS_6localeE, symObjAddr: 0x69A0, symBinAddr: 0x100008BB8, symSize: 0x2C }
  - { offsetInCU: 0x9BBF, offset: 0x9BBF, size: 0x8, addend: 0x0, symName: __ZNSt3__130__uninitialized_allocator_copyB8ue170006INS_9allocatorIyEEPyS3_S3_EET2_RT_T0_T1_S4_, symObjAddr: 0x7548, symBinAddr: 0x100009760, symSize: 0x80 }
  - { offsetInCU: 0x9C5C, offset: 0x9C5C, size: 0x8, addend: 0x0, symName: __ZNSt3__114__unwrap_rangeB8ue170006IPyS1_EENS_4pairIT0_S3_EET_S5_, symObjAddr: 0x75C8, symBinAddr: 0x1000097E0, symSize: 0x60 }
  - { offsetInCU: 0x9CA8, offset: 0x9CA8, size: 0x8, addend: 0x0, symName: __ZNSt3__135__uninitialized_allocator_copy_implB8ue170006INS_9allocatorIyEEyyyLPv0EEEPT2_RT_PT0_S9_S5_, symObjAddr: 0x7628, symBinAddr: 0x100009840, symSize: 0x38 }
  - { offsetInCU: 0x9D29, offset: 0x9D29, size: 0x8, addend: 0x0, symName: __ZNSt3__19make_pairB8ue170006IPyS1_EENS_4pairINS_18__unwrap_ref_decayIT_E4typeENS3_IT0_E4typeEEEOS4_OS7_, symObjAddr: 0x7660, symBinAddr: 0x100009878, symSize: 0x38 }
  - { offsetInCU: 0x9E7B, offset: 0x9E7B, size: 0x8, addend: 0x0, symName: __ZNSt3__14copyB8ue170006IPyS1_EET0_T_S3_S2_, symObjAddr: 0x7708, symBinAddr: 0x100009920, symSize: 0x40 }
  - { offsetInCU: 0x9ED5, offset: 0x9ED5, size: 0x8, addend: 0x0, symName: __ZNSt3__16__copyB8ue170006INS_17_ClassicAlgPolicyEPyS2_S2_EENS_4pairIT0_T2_EES4_T1_S5_, symObjAddr: 0x7748, symBinAddr: 0x100009960, symSize: 0x44 }
  - { offsetInCU: 0x9F41, offset: 0x9F41, size: 0x8, addend: 0x0, symName: __ZNSt3__123__dispatch_copy_or_moveB8ue170006INS_17_ClassicAlgPolicyENS_11__copy_loopIS1_EENS_14__copy_trivialEPyS5_S5_EENS_4pairIT2_T4_EES7_T3_S8_, symObjAddr: 0x778C, symBinAddr: 0x1000099A4, symSize: 0x44 }
  - { offsetInCU: 0x9FBF, offset: 0x9FBF, size: 0x8, addend: 0x0, symName: __ZNSt3__121__unwrap_and_dispatchB8ue170006INS_10__overloadINS_11__copy_loopINS_17_ClassicAlgPolicyEEENS_14__copy_trivialEEEPyS7_S7_Li0EEENS_4pairIT0_T2_EES9_T1_SA_, symObjAddr: 0x77D0, symBinAddr: 0x1000099E8, symSize: 0xB4 }
  - { offsetInCU: 0xA04D, offset: 0xA04D, size: 0x8, addend: 0x0, symName: __ZNSt3__114__rewrap_rangeB8ue170006IPyS1_EET_S2_T0_, symObjAddr: 0x78CC, symBinAddr: 0x100009AE4, symSize: 0x2C }
  - { offsetInCU: 0xA099, offset: 0xA099, size: 0x8, addend: 0x0, symName: __ZNSt3__119__copy_trivial_implB8ue170006IyyEENS_4pairIPT_PT0_EES3_S3_S5_, symObjAddr: 0x78F8, symBinAddr: 0x100009B10, symSize: 0x80 }
  - { offsetInCU: 0xA101, offset: 0xA101, size: 0x8, addend: 0x0, symName: __ZNSt3__119__constexpr_memmoveB8ue170006IyyLi0EEEPT_S2_PT0_NS_15__element_countE, symObjAddr: 0x7978, symBinAddr: 0x100009B90, symSize: 0x64 }
  - { offsetInCU: 0xA16F, offset: 0xA16F, size: 0x8, addend: 0x0, symName: __ZNSt3__19make_pairB8ue170006IRPyS1_EENS_4pairINS_18__unwrap_ref_decayIT_E4typeENS4_IT0_E4typeEEEOS5_OS8_, symObjAddr: 0x79DC, symBinAddr: 0x100009BF4, symSize: 0x38 }
  - { offsetInCU: 0xA1BE, offset: 0xA1BE, size: 0x8, addend: 0x0, symName: __ZNSt3__18distanceB8ue170006IPyEENS_15iterator_traitsIT_E15difference_typeES3_S3_, symObjAddr: 0x7E54, symBinAddr: 0x10000A06C, symSize: 0x2C }
  - { offsetInCU: 0xA201, offset: 0xA201, size: 0x8, addend: 0x0, symName: __ZNSt3__14nextB8ue170006IPyEENS_9enable_ifIXsr29__has_input_iterator_categoryIT_EE5valueES3_E4typeES3_NS_15iterator_traitsIS3_E15difference_typeE, symObjAddr: 0x7E80, symBinAddr: 0x10000A098, symSize: 0x34 }
  - { offsetInCU: 0xA244, offset: 0xA244, size: 0x8, addend: 0x0, symName: __ZNSt3__121__convert_to_integralB8ue170006El, symObjAddr: 0x8080, symBinAddr: 0x10000A298, symSize: 0x14 }
  - { offsetInCU: 0xA270, offset: 0xA270, size: 0x8, addend: 0x0, symName: __ZNSt3__19__advanceB8ue170006IPyEEvRT_NS_15iterator_traitsIS2_E15difference_typeENS_26random_access_iterator_tagE, symObjAddr: 0x8094, symBinAddr: 0x10000A2AC, symSize: 0x28 }
  - { offsetInCU: 0xA2B9, offset: 0xA2B9, size: 0x8, addend: 0x0, symName: __ZNSt3__13maxB8ue170006ImEERKT_S3_S3_, symObjAddr: 0x81B4, symBinAddr: 0x10000A3CC, symSize: 0x2C }
  - { offsetInCU: 0xA2FC, offset: 0xA2FC, size: 0x8, addend: 0x0, symName: __ZNSt3__13maxB8ue170006ImNS_6__lessIvvEEEERKT_S5_S5_T0_, symObjAddr: 0x81E0, symBinAddr: 0x10000A3F8, symSize: 0x54 }
  - { offsetInCU: 0xA356, offset: 0xA356, size: 0x8, addend: 0x0, symName: __ZNSt3__110__distanceB8ue170006IPyEENS_15iterator_traitsIT_E15difference_typeES3_S3_NS_26random_access_iterator_tagE, symObjAddr: 0x8234, symBinAddr: 0x10000A44C, symSize: 0x28 }
  - { offsetInCU: 0xA785, offset: 0xA785, size: 0x8, addend: 0x0, symName: __ZSt28__throw_bad_array_new_lengthB8ue170006v, symObjAddr: 0x3428, symBinAddr: 0x100005640, symSize: 0x34 }
  - { offsetInCU: 0xABD3, offset: 0xABD3, size: 0x8, addend: 0x0, symName: __ZL10lib_inited, symObjAddr: 0x45340, symBinAddr: 0x100010640, symSize: 0x0 }
  - { offsetInCU: 0xABEE, offset: 0xABEE, size: 0x8, addend: 0x0, symName: __ZL11lib_has_err, symObjAddr: 0x45341, symBinAddr: 0x100010641, symSize: 0x0 }
  - { offsetInCU: 0xAC09, offset: 0xAC09, size: 0x8, addend: 0x0, symName: __ZL16lib_handle_kperf, symObjAddr: 0x45348, symBinAddr: 0x100010648, symSize: 0x0 }
  - { offsetInCU: 0xAC26, offset: 0xAC26, size: 0x8, addend: 0x0, symName: __ZL20lib_handle_kperfdata, symObjAddr: 0x45350, symBinAddr: 0x100010650, symSize: 0x0 }
  - { offsetInCU: 0xAC41, offset: 0xAC41, size: 0x8, addend: 0x0, symName: __ZL17lib_symbols_kperf, symObjAddr: 0x9668, symBinAddr: 0x10000C428, symSize: 0x0 }
  - { offsetInCU: 0xACA5, offset: 0xACA5, size: 0x8, addend: 0x0, symName: __ZL15kpc_pmu_version, symObjAddr: 0x45358, symBinAddr: 0x100010658, symSize: 0x0 }
  - { offsetInCU: 0xACE7, offset: 0xACE7, size: 0x8, addend: 0x0, symName: __ZL14kpc_cpu_string, symObjAddr: 0x45360, symBinAddr: 0x100010660, symSize: 0x0 }
  - { offsetInCU: 0xAD1C, offset: 0xAD1C, size: 0x8, addend: 0x0, symName: __ZL16kpc_get_counting, symObjAddr: 0x45368, symBinAddr: 0x100010668, symSize: 0x0 }
  - { offsetInCU: 0xAD36, offset: 0xAD36, size: 0x8, addend: 0x0, symName: __ZL23kpc_get_thread_counting, symObjAddr: 0x45370, symBinAddr: 0x100010670, symSize: 0x0 }
  - { offsetInCU: 0xAD50, offset: 0xAD50, size: 0x8, addend: 0x0, symName: __ZL20kpc_get_config_count, symObjAddr: 0x45378, symBinAddr: 0x100010678, symSize: 0x0 }
  - { offsetInCU: 0xAD7B, offset: 0xAD7B, size: 0x8, addend: 0x0, symName: __ZL21kpc_get_counter_count, symObjAddr: 0x45380, symBinAddr: 0x100010680, symSize: 0x0 }
  - { offsetInCU: 0xAD95, offset: 0xAD95, size: 0x8, addend: 0x0, symName: __ZL14kpc_get_config, symObjAddr: 0x45388, symBinAddr: 0x100010688, symSize: 0x0 }
  - { offsetInCU: 0xADCB, offset: 0xADCB, size: 0x8, addend: 0x0, symName: __ZL20kpc_get_cpu_counters, symObjAddr: 0x45390, symBinAddr: 0x100010690, symSize: 0x0 }
  - { offsetInCU: 0xAE10, offset: 0xAE10, size: 0x8, addend: 0x0, symName: __ZL23kpc_get_thread_counters, symObjAddr: 0x45398, symBinAddr: 0x100010698, symSize: 0x0 }
  - { offsetInCU: 0xAE46, offset: 0xAE46, size: 0x8, addend: 0x0, symName: __ZL22kperf_action_count_set, symObjAddr: 0x453A0, symBinAddr: 0x1000106A0, symSize: 0x0 }
  - { offsetInCU: 0xAE72, offset: 0xAE72, size: 0x8, addend: 0x0, symName: __ZL22kperf_action_count_get, symObjAddr: 0x453A8, symBinAddr: 0x1000106A8, symSize: 0x0 }
  - { offsetInCU: 0xAEA3, offset: 0xAEA3, size: 0x8, addend: 0x0, symName: __ZL25kperf_action_samplers_set, symObjAddr: 0x453B0, symBinAddr: 0x1000106B0, symSize: 0x0 }
  - { offsetInCU: 0xAED4, offset: 0xAED4, size: 0x8, addend: 0x0, symName: __ZL25kperf_action_samplers_get, symObjAddr: 0x453B8, symBinAddr: 0x1000106B8, symSize: 0x0 }
  - { offsetInCU: 0xAF05, offset: 0xAF05, size: 0x8, addend: 0x0, symName: __ZL31kperf_action_filter_set_by_task, symObjAddr: 0x453C0, symBinAddr: 0x1000106C0, symSize: 0x0 }
  - { offsetInCU: 0xAF4C, offset: 0xAF4C, size: 0x8, addend: 0x0, symName: __ZL30kperf_action_filter_set_by_pid, symObjAddr: 0x453C8, symBinAddr: 0x1000106C8, symSize: 0x0 }
  - { offsetInCU: 0xAF67, offset: 0xAF67, size: 0x8, addend: 0x0, symName: __ZL21kperf_timer_count_set, symObjAddr: 0x453D0, symBinAddr: 0x1000106D0, symSize: 0x0 }
  - { offsetInCU: 0xAF82, offset: 0xAF82, size: 0x8, addend: 0x0, symName: __ZL21kperf_timer_count_get, symObjAddr: 0x453D8, symBinAddr: 0x1000106D8, symSize: 0x0 }
  - { offsetInCU: 0xAF9D, offset: 0xAF9D, size: 0x8, addend: 0x0, symName: __ZL22kperf_timer_period_set, symObjAddr: 0x453E0, symBinAddr: 0x1000106E0, symSize: 0x0 }
  - { offsetInCU: 0xAFCE, offset: 0xAFCE, size: 0x8, addend: 0x0, symName: __ZL22kperf_timer_period_get, symObjAddr: 0x453E8, symBinAddr: 0x1000106E8, symSize: 0x0 }
  - { offsetInCU: 0xAFFF, offset: 0xAFFF, size: 0x8, addend: 0x0, symName: __ZL22kperf_timer_action_set, symObjAddr: 0x453F0, symBinAddr: 0x1000106F0, symSize: 0x0 }
  - { offsetInCU: 0xB01A, offset: 0xB01A, size: 0x8, addend: 0x0, symName: __ZL22kperf_timer_action_get, symObjAddr: 0x453F8, symBinAddr: 0x1000106F8, symSize: 0x0 }
  - { offsetInCU: 0xB035, offset: 0xB035, size: 0x8, addend: 0x0, symName: __ZL16kperf_sample_set, symObjAddr: 0x45400, symBinAddr: 0x100010700, symSize: 0x0 }
  - { offsetInCU: 0xB050, offset: 0xB050, size: 0x8, addend: 0x0, symName: __ZL16kperf_sample_get, symObjAddr: 0x45408, symBinAddr: 0x100010708, symSize: 0x0 }
  - { offsetInCU: 0xB06B, offset: 0xB06B, size: 0x8, addend: 0x0, symName: __ZL11kperf_reset, symObjAddr: 0x45410, symBinAddr: 0x100010710, symSize: 0x0 }
  - { offsetInCU: 0xB091, offset: 0xB091, size: 0x8, addend: 0x0, symName: __ZL19kperf_timer_pet_set, symObjAddr: 0x45418, symBinAddr: 0x100010718, symSize: 0x0 }
  - { offsetInCU: 0xB0AC, offset: 0xB0AC, size: 0x8, addend: 0x0, symName: __ZL19kperf_timer_pet_get, symObjAddr: 0x45420, symBinAddr: 0x100010720, symSize: 0x0 }
  - { offsetInCU: 0xB0C7, offset: 0xB0C7, size: 0x8, addend: 0x0, symName: __ZL17kperf_ns_to_ticks, symObjAddr: 0x45428, symBinAddr: 0x100010728, symSize: 0x0 }
  - { offsetInCU: 0xB0F3, offset: 0xB0F3, size: 0x8, addend: 0x0, symName: __ZL17kperf_ticks_to_ns, symObjAddr: 0x45430, symBinAddr: 0x100010730, symSize: 0x0 }
  - { offsetInCU: 0xB10E, offset: 0xB10E, size: 0x8, addend: 0x0, symName: __ZL20kperf_tick_frequency, symObjAddr: 0x45438, symBinAddr: 0x100010738, symSize: 0x0 }
  - { offsetInCU: 0xB134, offset: 0xB134, size: 0x8, addend: 0x0, symName: __ZL21lib_symbols_kperfdata, symObjAddr: 0x9888, symBinAddr: 0x10000C648, symSize: 0x0 }
  - { offsetInCU: 0xB15C, offset: 0xB15C, size: 0x8, addend: 0x0, symName: __ZL16kpep_config_free, symObjAddr: 0x45440, symBinAddr: 0x100010740, symSize: 0x0 }
  - { offsetInCU: 0xB421, offset: 0xB421, size: 0x8, addend: 0x0, symName: __ZL24kpep_config_remove_event, symObjAddr: 0x45448, symBinAddr: 0x100010748, symSize: 0x0 }
  - { offsetInCU: 0xB452, offset: 0xB452, size: 0x8, addend: 0x0, symName: __ZL24kpep_config_events_count, symObjAddr: 0x45450, symBinAddr: 0x100010750, symSize: 0x0 }
  - { offsetInCU: 0xB483, offset: 0xB483, size: 0x8, addend: 0x0, symName: __ZL18kpep_config_events, symObjAddr: 0x45458, symBinAddr: 0x100010758, symSize: 0x0 }
  - { offsetInCU: 0xB4B9, offset: 0xB4B9, size: 0x8, addend: 0x0, symName: __ZL12kpep_db_free, symObjAddr: 0x45460, symBinAddr: 0x100010760, symSize: 0x0 }
  - { offsetInCU: 0xB4E1, offset: 0xB4E1, size: 0x8, addend: 0x0, symName: __ZL12kpep_db_name, symObjAddr: 0x45468, symBinAddr: 0x100010768, symSize: 0x0 }
  - { offsetInCU: 0xB517, offset: 0xB517, size: 0x8, addend: 0x0, symName: __ZL21kpep_db_aliases_count, symObjAddr: 0x45470, symBinAddr: 0x100010770, symSize: 0x0 }
  - { offsetInCU: 0xB548, offset: 0xB548, size: 0x8, addend: 0x0, symName: __ZL15kpep_db_aliases, symObjAddr: 0x45478, symBinAddr: 0x100010778, symSize: 0x0 }
  - { offsetInCU: 0xB57E, offset: 0xB57E, size: 0x8, addend: 0x0, symName: __ZL22kpep_db_counters_count, symObjAddr: 0x45480, symBinAddr: 0x100010780, symSize: 0x0 }
  - { offsetInCU: 0xB5B4, offset: 0xB5B4, size: 0x8, addend: 0x0, symName: __ZL20kpep_db_events_count, symObjAddr: 0x45488, symBinAddr: 0x100010788, symSize: 0x0 }
  - { offsetInCU: 0xB5CF, offset: 0xB5CF, size: 0x8, addend: 0x0, symName: __ZL14kpep_db_events, symObjAddr: 0x45490, symBinAddr: 0x100010790, symSize: 0x0 }
  - { offsetInCU: 0xB605, offset: 0xB605, size: 0x8, addend: 0x0, symName: __ZL13kpep_db_event, symObjAddr: 0x45498, symBinAddr: 0x100010798, symSize: 0x0 }
  - { offsetInCU: 0xB63B, offset: 0xB63B, size: 0x8, addend: 0x0, symName: __ZL15kpep_event_name, symObjAddr: 0x454A0, symBinAddr: 0x1000107A0, symSize: 0x0 }
  - { offsetInCU: 0xB66C, offset: 0xB66C, size: 0x8, addend: 0x0, symName: __ZL16kpep_event_alias, symObjAddr: 0x454A8, symBinAddr: 0x1000107A8, symSize: 0x0 }
  - { offsetInCU: 0xB687, offset: 0xB687, size: 0x8, addend: 0x0, symName: __ZL22kpep_event_description, symObjAddr: 0x454B0, symBinAddr: 0x1000107B0, symSize: 0x0 }
  - { offsetInCU: 0xB6A2, offset: 0xB6A2, size: 0x8, addend: 0x0, symName: __ZL11lib_err_msg, symObjAddr: 0x451D8, symBinAddr: 0x1000104D8, symSize: 0x0 }
  - { offsetInCU: 0xB6CB, offset: 0xB6CB, size: 0x8, addend: 0x0, symName: __ZL22kpc_force_all_ctrs_get, symObjAddr: 0x452D8, symBinAddr: 0x1000105D8, symSize: 0x0 }
  - { offsetInCU: 0xB6F7, offset: 0xB6F7, size: 0x8, addend: 0x0, symName: __ZL14kpep_db_create, symObjAddr: 0x452E0, symBinAddr: 0x1000105E0, symSize: 0x0 }
  - { offsetInCU: 0xB72D, offset: 0xB72D, size: 0x8, addend: 0x0, symName: __ZL18kpep_config_create, symObjAddr: 0x452E8, symBinAddr: 0x1000105E8, symSize: 0x0 }
  - { offsetInCU: 0xB763, offset: 0xB763, size: 0x8, addend: 0x0, symName: __ZL23kpep_config_error_names, symObjAddr: 0x99F8, symBinAddr: 0x100010000, symSize: 0x0 }
  - { offsetInCU: 0xB78B, offset: 0xB78B, size: 0x8, addend: 0x0, symName: __ZL26kpep_config_force_counters, symObjAddr: 0x452F0, symBinAddr: 0x1000105F0, symSize: 0x0 }
  - { offsetInCU: 0xB7B7, offset: 0xB7B7, size: 0x8, addend: 0x0, symName: __ZL14profile_events, symObjAddr: 0x9548, symBinAddr: 0x10000C308, symSize: 0x0 }
  - { offsetInCU: 0xB81F, offset: 0xB81F, size: 0x8, addend: 0x0, symName: __ZL21kpep_config_add_event, symObjAddr: 0x452F8, symBinAddr: 0x1000105F8, symSize: 0x0 }
  - { offsetInCU: 0xB85A, offset: 0xB85A, size: 0x8, addend: 0x0, symName: __ZL23kpep_config_kpc_classes, symObjAddr: 0x45300, symBinAddr: 0x100010600, symSize: 0x0 }
  - { offsetInCU: 0xB88B, offset: 0xB88B, size: 0x8, addend: 0x0, symName: __ZL21kpep_config_kpc_count, symObjAddr: 0x45308, symBinAddr: 0x100010608, symSize: 0x0 }
  - { offsetInCU: 0xB8A6, offset: 0xB8A6, size: 0x8, addend: 0x0, symName: __ZL19kpep_config_kpc_map, symObjAddr: 0x45310, symBinAddr: 0x100010610, symSize: 0x0 }
  - { offsetInCU: 0xB8DC, offset: 0xB8DC, size: 0x8, addend: 0x0, symName: __ZL15kpep_config_kpc, symObjAddr: 0x45318, symBinAddr: 0x100010618, symSize: 0x0 }
  - { offsetInCU: 0xB912, offset: 0xB912, size: 0x8, addend: 0x0, symName: __ZL22kpc_force_all_ctrs_set, symObjAddr: 0x45320, symBinAddr: 0x100010620, symSize: 0x0 }
  - { offsetInCU: 0xB93D, offset: 0xB93D, size: 0x8, addend: 0x0, symName: __ZL14kpc_set_config, symObjAddr: 0x45328, symBinAddr: 0x100010628, symSize: 0x0 }
  - { offsetInCU: 0xB957, offset: 0xB957, size: 0x8, addend: 0x0, symName: __ZL16kpc_set_counting, symObjAddr: 0x45330, symBinAddr: 0x100010630, symSize: 0x0 }
  - { offsetInCU: 0xB971, offset: 0xB971, size: 0x8, addend: 0x0, symName: __ZL23kpc_set_thread_counting, symObjAddr: 0x45338, symBinAddr: 0x100010638, symSize: 0x0 }
  - { offsetInCU: 0xB97F, offset: 0xB97F, size: 0x8, addend: 0x0, symName: __ZN11AppleEvents12get_countersEv, symObjAddr: 0x6D14, symBinAddr: 0x100008F2C, symSize: 0xF4 }
  - { offsetInCU: 0xB9A4, offset: 0xB9A4, size: 0x8, addend: 0x0, symName: __ZZN11AppleEvents12get_countersEvE6warned, symObjAddr: 0x9A78, symBinAddr: 0x100010080, symSize: 0x0 }
  - { offsetInCU: 0xBCBF, offset: 0xBCBF, size: 0x8, addend: 0x0, symName: __ZNKSt3__16chrono15__duration_castINS0_8durationIdNS_5ratioILl1ELl1EEEEENS2_IdNS3_ILl1ELl1000000000EEEEENS3_ILl1000000000ELl1EEELb0ELb1EEclB8ue170006ERKS5_, symObjAddr: 0x4BA8, symBinAddr: 0x100006DC0, symSize: 0x4C }
  - { offsetInCU: 0xBDF2, offset: 0xBDF2, size: 0x8, addend: 0x0, symName: __ZNKSt3__16chrono15__duration_castINS0_8durationIxNS_5ratioILl1ELl1000000000EEEEENS2_IdNS3_ILl1ELl1EEEEES4_Lb1ELb0EEclB8ue170006ERKS5_, symObjAddr: 0x7198, symBinAddr: 0x1000093B0, symSize: 0x50 }
  - { offsetInCU: 0xE204, offset: 0xE204, size: 0x8, addend: 0x0, symName: __Z16multiply_doublesmdd, symObjAddr: 0x0, symBinAddr: 0x100002218, symSize: 0xA4 }
  - { offsetInCU: 0xE294, offset: 0xE294, size: 0x8, addend: 0x0, symName: __Z14divide_doublesmdd, symObjAddr: 0xA4, symBinAddr: 0x1000022BC, symSize: 0x60 }
  - { offsetInCU: 0xE307, offset: 0xE307, size: 0x8, addend: 0x0, symName: __Z11add_doublesmdd, symObjAddr: 0x104, symBinAddr: 0x10000231C, symSize: 0x60 }
  - { offsetInCU: 0xE37A, offset: 0xE37A, size: 0x8, addend: 0x0, symName: __Z11sub_doublesmdd, symObjAddr: 0x164, symBinAddr: 0x10000237C, symSize: 0x64 }
  - { offsetInCU: 0xE3ED, offset: 0xE3ED, size: 0x8, addend: 0x0, symName: __Z15multiply_floatsmff, symObjAddr: 0x1C8, symBinAddr: 0x1000023E0, symSize: 0x60 }
  - { offsetInCU: 0xE460, offset: 0xE460, size: 0x8, addend: 0x0, symName: __Z13divide_floatsmff, symObjAddr: 0x228, symBinAddr: 0x100002440, symSize: 0x60 }
  - { offsetInCU: 0xE4D3, offset: 0xE4D3, size: 0x8, addend: 0x0, symName: __Z10add_floatsmff, symObjAddr: 0x288, symBinAddr: 0x1000024A0, symSize: 0x60 }
  - { offsetInCU: 0xE546, offset: 0xE546, size: 0x8, addend: 0x0, symName: __Z10sub_floatsmff, symObjAddr: 0x2E8, symBinAddr: 0x100002500, symSize: 0x60 }
  - { offsetInCU: 0xE5BA, offset: 0xE5BA, size: 0x8, addend: 0x0, symName: __ZN15event_collectorC1Ev, symObjAddr: 0x348, symBinAddr: 0x100002560, symSize: 0x2C }
  - { offsetInCU: 0xE5E4, offset: 0xE5E4, size: 0x8, addend: 0x0, symName: __ZN15event_collectorD1Ev, symObjAddr: 0x374, symBinAddr: 0x10000258C, symSize: 0x2C }
  - { offsetInCU: 0xE60F, offset: 0xE60F, size: 0x8, addend: 0x0, symName: __Z12pretty_printmNSt3__112basic_stringIcNS_11char_traitsIcEENS_9allocatorIcEEEE15event_aggregate, symObjAddr: 0x3A0, symBinAddr: 0x1000025B8, symSize: 0x220 }
  - { offsetInCU: 0xE656, offset: 0xE656, size: 0x8, addend: 0x0, symName: __ZNKSt3__112basic_stringIcNS_11char_traitsIcEENS_9allocatorIcEEE5c_strB8ue170006Ev, symObjAddr: 0x5C0, symBinAddr: 0x1000027D8, symSize: 0x24 }
  - { offsetInCU: 0xE753, offset: 0xE753, size: 0x8, addend: 0x0, symName: __ZNK15event_aggregate10elapsed_nsEv, symObjAddr: 0x5E4, symBinAddr: 0x1000027FC, symSize: 0x44 }
  - { offsetInCU: 0xE779, offset: 0xE779, size: 0x8, addend: 0x0, symName: __ZNK15event_aggregate12instructionsEv, symObjAddr: 0x628, symBinAddr: 0x100002840, symSize: 0x44 }
  - { offsetInCU: 0xE79F, offset: 0xE79F, size: 0x8, addend: 0x0, symName: __ZNK15event_aggregate6cyclesEv, symObjAddr: 0x66C, symBinAddr: 0x100002884, symSize: 0x44 }
  - { offsetInCU: 0xE7C5, offset: 0xE7C5, size: 0x8, addend: 0x0, symName: __ZNK11event_count6cyclesEv, symObjAddr: 0x6B0, symBinAddr: 0x1000028C8, symSize: 0x34 }
  - { offsetInCU: 0xE7EB, offset: 0xE7EB, size: 0x8, addend: 0x0, symName: __ZNK11event_count8branchesEv, symObjAddr: 0x6E4, symBinAddr: 0x1000028FC, symSize: 0x34 }
  - { offsetInCU: 0xE811, offset: 0xE811, size: 0x8, addend: 0x0, symName: __ZNK11event_count13branch_missesEv, symObjAddr: 0x718, symBinAddr: 0x100002930, symSize: 0x34 }
  - { offsetInCU: 0xE837, offset: 0xE837, size: 0x8, addend: 0x0, symName: __ZNK11event_count12instructionsEv, symObjAddr: 0x74C, symBinAddr: 0x100002964, symSize: 0x34 }
  - { offsetInCU: 0xE85C, offset: 0xE85C, size: 0x8, addend: 0x0, symName: __Z15write_to_outputm15event_aggregateNSt3__112basic_stringIcNS0_11char_traitsIcEENS0_9allocatorIcEEEEff, symObjAddr: 0x780, symBinAddr: 0x100002998, symSize: 0x220 }
  - { offsetInCU: 0xE96C, offset: 0xE96C, size: 0x8, addend: 0x0, symName: __ZNSt3__114basic_ofstreamIcNS_11char_traitsIcEEEC1Ev, symObjAddr: 0x9A0, symBinAddr: 0x100002BB8, symSize: 0xE8 }
  - { offsetInCU: 0xE998, offset: 0xE998, size: 0x8, addend: 0x0, symName: __ZNSt3__114basic_ofstreamIcNS_11char_traitsIcEEE5closeEv, symObjAddr: 0xC38, symBinAddr: 0x100002E50, symSize: 0x58 }
  - { offsetInCU: 0xE9C5, offset: 0xE9C5, size: 0x8, addend: 0x0, symName: __ZNSt3__114basic_ofstreamIcNS_11char_traitsIcEEED1Ev, symObjAddr: 0xC90, symBinAddr: 0x100002EA8, symSize: 0x40 }
  - { offsetInCU: 0xE9F1, offset: 0xE9F1, size: 0x8, addend: 0x0, symName: __Z21process_divide_floatsmffNSt3__112basic_stringIcNS_11char_traitsIcEENS_9allocatorIcEEEE, symObjAddr: 0xCD0, symBinAddr: 0x100002EE8, symSize: 0xD8 }
  - { offsetInCU: 0xEA44, offset: 0xEA44, size: 0x8, addend: 0x0, symName: __Z10time_it_nsIFfmffEE15event_aggregateRKT_mff, symObjAddr: 0xDA8, symBinAddr: 0x100002FC0, symSize: 0x22C }
  - { offsetInCU: 0xEAF9, offset: 0xEAF9, size: 0x8, addend: 0x0, symName: __ZN15event_aggregateD1Ev, symObjAddr: 0xFD4, symBinAddr: 0x1000031EC, symSize: 0x2C }
  - { offsetInCU: 0xEB24, offset: 0xEB24, size: 0x8, addend: 0x0, symName: __Z23process_multiply_floatsmffNSt3__112basic_stringIcNS_11char_traitsIcEENS_9allocatorIcEEEE, symObjAddr: 0x1000, symBinAddr: 0x100003218, symSize: 0xD8 }
  - { offsetInCU: 0xEB77, offset: 0xEB77, size: 0x8, addend: 0x0, symName: __Z18process_add_floatsmffNSt3__112basic_stringIcNS_11char_traitsIcEENS_9allocatorIcEEEE, symObjAddr: 0x10D8, symBinAddr: 0x1000032F0, symSize: 0xD8 }
  - { offsetInCU: 0xEBCA, offset: 0xEBCA, size: 0x8, addend: 0x0, symName: __Z18process_sub_floatsmffNSt3__112basic_stringIcNS_11char_traitsIcEENS_9allocatorIcEEEE, symObjAddr: 0x11B0, symBinAddr: 0x1000033C8, symSize: 0xD8 }
  - { offsetInCU: 0xEC1D, offset: 0xEC1D, size: 0x8, addend: 0x0, symName: __Z22process_divide_doublesmddNSt3__112basic_stringIcNS_11char_traitsIcEENS_9allocatorIcEEEE, symObjAddr: 0x1288, symBinAddr: 0x1000034A0, symSize: 0xF0 }
  - { offsetInCU: 0xEC70, offset: 0xEC70, size: 0x8, addend: 0x0, symName: __Z10time_it_nsIFdmddEE15event_aggregateRKT_mff, symObjAddr: 0x1378, symBinAddr: 0x100003590, symSize: 0x244 }
  - { offsetInCU: 0xED24, offset: 0xED24, size: 0x8, addend: 0x0, symName: __Z24process_multiply_doublesmddNSt3__112basic_stringIcNS_11char_traitsIcEENS_9allocatorIcEEEE, symObjAddr: 0x15BC, symBinAddr: 0x1000037D4, symSize: 0xF0 }
  - { offsetInCU: 0xED77, offset: 0xED77, size: 0x8, addend: 0x0, symName: __Z19process_add_doublesmddNSt3__112basic_stringIcNS_11char_traitsIcEENS_9allocatorIcEEEE, symObjAddr: 0x16AC, symBinAddr: 0x1000038C4, symSize: 0xF0 }
  - { offsetInCU: 0xEDCA, offset: 0xEDCA, size: 0x8, addend: 0x0, symName: __Z19process_sub_doublesmddNSt3__112basic_stringIcNS_11char_traitsIcEENS_9allocatorIcEEEE, symObjAddr: 0x179C, symBinAddr: 0x1000039B4, symSize: 0xF0 }
  - { offsetInCU: 0xEE1D, offset: 0xEE1D, size: 0x8, addend: 0x0, symName: __Z10time_it_nsIFfmddEE15event_aggregateRKT_mff, symObjAddr: 0x188C, symBinAddr: 0x100003AA4, symSize: 0x23C }
  - { offsetInCU: 0xEED2, offset: 0xEED2, size: 0x8, addend: 0x0, symName: _main, symObjAddr: 0x1AC8, symBinAddr: 0x100003CE0, symSize: 0x494 }
  - { offsetInCU: 0xEFBD, offset: 0xEFBD, size: 0x8, addend: 0x0, symName: __ZNSt3__112basic_stringIcNS_11char_traitsIcEENS_9allocatorIcEEEC1B8ue170006ILi0EEEPKc, symObjAddr: 0x1F5C, symBinAddr: 0x100004174, symSize: 0x34 }
  - { offsetInCU: 0xEFFC, offset: 0xEFFC, size: 0x8, addend: 0x0, symName: __ZN15event_collector10has_eventsEv, symObjAddr: 0x1F90, symBinAddr: 0x1000041A8, symSize: 0x2C }
  - { offsetInCU: 0xF022, offset: 0xF022, size: 0x8, addend: 0x0, symName: __ZNSt3__113basic_ostreamIcNS_11char_traitsIcEEElsB8ue170006EPFRS3_S4_E, symObjAddr: 0x1FBC, symBinAddr: 0x1000041D4, symSize: 0x2C }
  - { offsetInCU: 0xF056, offset: 0xF056, size: 0x8, addend: 0x0, symName: __ZN15event_collectorC2Ev, symObjAddr: 0x2040, symBinAddr: 0x100004258, symSize: 0x90 }
  - { offsetInCU: 0xF080, offset: 0xF080, size: 0x8, addend: 0x0, symName: __ZN11event_countC1Ev, symObjAddr: 0x20D0, symBinAddr: 0x1000042E8, symSize: 0x2C }
  - { offsetInCU: 0xF0AA, offset: 0xF0AA, size: 0x8, addend: 0x0, symName: __ZNSt3__16chrono10time_pointINS0_12steady_clockENS0_8durationIxNS_5ratioILl1ELl1000000000EEEEEEC1B8ue170006Ev, symObjAddr: 0x20FC, symBinAddr: 0x100004314, symSize: 0x2C }
  - { offsetInCU: 0xF0D4, offset: 0xF0D4, size: 0x8, addend: 0x0, symName: __ZN11AppleEventsC1Ev, symObjAddr: 0x2128, symBinAddr: 0x100004340, symSize: 0x2C }
  - { offsetInCU: 0xF101, offset: 0xF101, size: 0x8, addend: 0x0, symName: __ZN20performance_countersC1Ed, symObjAddr: 0x2154, symBinAddr: 0x10000436C, symSize: 0x34 }
  - { offsetInCU: 0xF139, offset: 0xF139, size: 0x8, addend: 0x0, symName: __ZN11AppleEvents26setup_performance_countersEv, symObjAddr: 0x2188, symBinAddr: 0x1000043A0, symSize: 0x7BC }
  - { offsetInCU: 0xF24A, offset: 0xF24A, size: 0x8, addend: 0x0, symName: __ZN11event_countD1Ev, symObjAddr: 0x2944, symBinAddr: 0x100004B5C, symSize: 0x2C }
  - { offsetInCU: 0xF276, offset: 0xF276, size: 0x8, addend: 0x0, symName: __ZN11event_countC2Ev, symObjAddr: 0x2970, symBinAddr: 0x100004B88, symSize: 0xC4 }
  - { offsetInCU: 0xF2AA, offset: 0xF2AA, size: 0x8, addend: 0x0, symName: __ZNSt3__16chrono8durationIdNS_5ratioILl1ELl1EEEEC1B8ue170006IiEERKT_PNS_9enable_ifIXaasr14is_convertibleIS8_dEE5valueooL_ZNS_17integral_constantIbLb1EE5valueEEntsr23treat_as_floating_pointIS6_EE5valueEvE4typeE, symObjAddr: 0x2A34, symBinAddr: 0x100004C4C, symSize: 0x3C }
  - { offsetInCU: 0xF2F6, offset: 0xF2F6, size: 0x8, addend: 0x0, symName: __ZNSt3__16vectorIyNS_9allocatorIyEEEC1B8ue170006ESt16initializer_listIyE, symObjAddr: 0x2A70, symBinAddr: 0x100004C88, symSize: 0x3C }
  - { offsetInCU: 0xF331, offset: 0xF331, size: 0x8, addend: 0x0, symName: __ZNSt3__16chrono8durationIdNS_5ratioILl1ELl1EEEEC2B8ue170006IiEERKT_PNS_9enable_ifIXaasr14is_convertibleIS8_dEE5valueooL_ZNS_17integral_constantIbLb1EE5valueEEntsr23treat_as_floating_pointIS6_EE5valueEvE4typeE, symObjAddr: 0x2AAC, symBinAddr: 0x100004CC4, symSize: 0x34 }
  - { offsetInCU: 0xF37D, offset: 0xF37D, size: 0x8, addend: 0x0, symName: __ZNSt3__16vectorIyNS_9allocatorIyEEEC2B8ue170006ESt16initializer_listIyE, symObjAddr: 0x2AE0, symBinAddr: 0x100004CF8, symSize: 0x120 }
  - { offsetInCU: 0xF3D7, offset: 0xF3D7, size: 0x8, addend: 0x0, symName: __ZNSt3__117__compressed_pairIPyNS_9allocatorIyEEEC1B8ue170006IDnNS_18__default_init_tagEEEOT_OT0_, symObjAddr: 0x2C00, symBinAddr: 0x100004E18, symSize: 0x3C }
  - { offsetInCU: 0xF42F, offset: 0xF42F, size: 0x8, addend: 0x0, symName: __ZNSt3__16vectorIyNS_9allocatorIyEEE16__destroy_vectorC1B8ue170006ERS3_, symObjAddr: 0x2C7C, symBinAddr: 0x100004E94, symSize: 0x34 }
  - { offsetInCU: 0xF468, offset: 0xF468, size: 0x8, addend: 0x0, symName: __ZNKSt16initializer_listIyE4sizeB8ue170006Ev, symObjAddr: 0x2CB0, symBinAddr: 0x100004EC8, symSize: 0x18 }
  - { offsetInCU: 0xF48E, offset: 0xF48E, size: 0x8, addend: 0x0, symName: __ZNSt3__16vectorIyNS_9allocatorIyEEE11__vallocateB8ue170006Em, symObjAddr: 0x2CC8, symBinAddr: 0x100004EE0, symSize: 0xAC }
  - { offsetInCU: 0xF4D2, offset: 0xF4D2, size: 0x8, addend: 0x0, symName: __ZNSt3__16vectorIyNS_9allocatorIyEEE18__construct_at_endIPKyS6_EEvT_T0_m, symObjAddr: 0x2D74, symBinAddr: 0x100004F8C, symSize: 0x8C }
  - { offsetInCU: 0xF548, offset: 0xF548, size: 0x8, addend: 0x0, symName: __ZNKSt16initializer_listIyE5beginB8ue170006Ev, symObjAddr: 0x2E00, symBinAddr: 0x100005018, symSize: 0x18 }
  - { offsetInCU: 0xF56E, offset: 0xF56E, size: 0x8, addend: 0x0, symName: __ZNKSt16initializer_listIyE3endB8ue170006Ev, symObjAddr: 0x2E18, symBinAddr: 0x100005030, symSize: 0x20 }
  - { offsetInCU: 0xF594, offset: 0xF594, size: 0x8, addend: 0x0, symName: __ZNSt3__128__exception_guard_exceptionsINS_6vectorIyNS_9allocatorIyEEE16__destroy_vectorEE10__completeB8ue170006Ev, symObjAddr: 0x2E38, symBinAddr: 0x100005050, symSize: 0x1C }
  - { offsetInCU: 0xF5BA, offset: 0xF5BA, size: 0x8, addend: 0x0, symName: __ZNSt3__128__exception_guard_exceptionsINS_6vectorIyNS_9allocatorIyEEE16__destroy_vectorEED1B8ue170006Ev, symObjAddr: 0x2E54, symBinAddr: 0x10000506C, symSize: 0x2C }
  - { offsetInCU: 0xF5E4, offset: 0xF5E4, size: 0x8, addend: 0x0, symName: __ZNSt3__117__compressed_pairIPyNS_9allocatorIyEEEC2B8ue170006IDnNS_18__default_init_tagEEEOT_OT0_, symObjAddr: 0x2E80, symBinAddr: 0x100005098, symSize: 0x40 }
  - { offsetInCU: 0xF63C, offset: 0xF63C, size: 0x8, addend: 0x0, symName: __ZNSt3__122__compressed_pair_elemIPyLi0ELb0EEC2B8ue170006IDnvEEOT_, symObjAddr: 0x2EC0, symBinAddr: 0x1000050D8, symSize: 0x1C }
  - { offsetInCU: 0xF67E, offset: 0xF67E, size: 0x8, addend: 0x0, symName: __ZNSt3__122__compressed_pair_elemINS_9allocatorIyEELi1ELb1EEC2B8ue170006ENS_18__default_init_tagE, symObjAddr: 0x2EDC, symBinAddr: 0x1000050F4, symSize: 0x2C }
  - { offsetInCU: 0xF6B2, offset: 0xF6B2, size: 0x8, addend: 0x0, symName: __ZNSt3__19allocatorIyEC2B8ue170006Ev, symObjAddr: 0x2F08, symBinAddr: 0x100005120, symSize: 0x2C }
  - { offsetInCU: 0xF6DC, offset: 0xF6DC, size: 0x8, addend: 0x0, symName: __ZNSt3__116__non_trivial_ifILb1ENS_9allocatorIyEEEC2B8ue170006Ev, symObjAddr: 0x2F34, symBinAddr: 0x10000514C, symSize: 0x14 }
  - { offsetInCU: 0xF706, offset: 0xF706, size: 0x8, addend: 0x0, symName: __ZNSt3__128__exception_guard_exceptionsINS_6vectorIyNS_9allocatorIyEEE16__destroy_vectorEEC1B8ue170006ES5_, symObjAddr: 0x2F48, symBinAddr: 0x100005160, symSize: 0x34 }
  - { offsetInCU: 0xF73E, offset: 0xF73E, size: 0x8, addend: 0x0, symName: __ZNSt3__128__exception_guard_exceptionsINS_6vectorIyNS_9allocatorIyEEE16__destroy_vectorEEC2B8ue170006ES5_, symObjAddr: 0x2F7C, symBinAddr: 0x100005194, symSize: 0x24 }
  - { offsetInCU: 0xF776, offset: 0xF776, size: 0x8, addend: 0x0, symName: __ZNSt3__16vectorIyNS_9allocatorIyEEE16__destroy_vectorC2B8ue170006ERS3_, symObjAddr: 0x2FA0, symBinAddr: 0x1000051B8, symSize: 0x20 }
  - { offsetInCU: 0xF7AF, offset: 0xF7AF, size: 0x8, addend: 0x0, symName: __ZNKSt3__16vectorIyNS_9allocatorIyEEE8max_sizeEv, symObjAddr: 0x2FC0, symBinAddr: 0x1000051D8, symSize: 0x60 }
  - { offsetInCU: 0xF7D7, offset: 0xF7D7, size: 0x8, addend: 0x0, symName: __ZNKSt3__16vectorIyNS_9allocatorIyEEE20__throw_length_errorB8ue170006Ev, symObjAddr: 0x3020, symBinAddr: 0x100005238, symSize: 0x1C }
  - { offsetInCU: 0xF7FD, offset: 0xF7FD, size: 0x8, addend: 0x0, symName: __ZNSt3__16vectorIyNS_9allocatorIyEEE7__allocB8ue170006Ev, symObjAddr: 0x307C, symBinAddr: 0x100005294, symSize: 0x28 }
  - { offsetInCU: 0xF823, offset: 0xF823, size: 0x8, addend: 0x0, symName: __ZNSt3__16vectorIyNS_9allocatorIyEEE9__end_capB8ue170006Ev, symObjAddr: 0x30A4, symBinAddr: 0x1000052BC, symSize: 0x28 }
  - { offsetInCU: 0xF849, offset: 0xF849, size: 0x8, addend: 0x0, symName: __ZNKSt3__16vectorIyNS_9allocatorIyEEE14__annotate_newB8ue170006Em, symObjAddr: 0x30CC, symBinAddr: 0x1000052E4, symSize: 0xAC }
  - { offsetInCU: 0xF888, offset: 0xF888, size: 0x8, addend: 0x0, symName: __ZNSt3__116allocator_traitsINS_9allocatorIyEEE8max_sizeB8ue170006IS2_vEEmRKS2_, symObjAddr: 0x31A4, symBinAddr: 0x1000053BC, symSize: 0x24 }
  - { offsetInCU: 0xF8B6, offset: 0xF8B6, size: 0x8, addend: 0x0, symName: __ZNKSt3__16vectorIyNS_9allocatorIyEEE7__allocB8ue170006Ev, symObjAddr: 0x31C8, symBinAddr: 0x1000053E0, symSize: 0x28 }
  - { offsetInCU: 0xF8DC, offset: 0xF8DC, size: 0x8, addend: 0x0, symName: __ZNSt3__114numeric_limitsIlE3maxB8ue170006Ev, symObjAddr: 0x31F0, symBinAddr: 0x100005408, symSize: 0x14 }
  - { offsetInCU: 0xF904, offset: 0xF904, size: 0x8, addend: 0x0, symName: __ZNKSt3__16__lessIvvEclB8ue170006ImmEEbRKT_RKT0_, symObjAddr: 0x3264, symBinAddr: 0x10000547C, symSize: 0x34 }
  - { offsetInCU: 0xF958, offset: 0xF958, size: 0x8, addend: 0x0, symName: __ZNKSt3__19allocatorIyE8max_sizeB8ue170006Ev, symObjAddr: 0x3298, symBinAddr: 0x1000054B0, symSize: 0x14 }
  - { offsetInCU: 0xF97E, offset: 0xF97E, size: 0x8, addend: 0x0, symName: __ZNKSt3__117__compressed_pairIPyNS_9allocatorIyEEE6secondB8ue170006Ev, symObjAddr: 0x32AC, symBinAddr: 0x1000054C4, symSize: 0x24 }
  - { offsetInCU: 0xF9A4, offset: 0xF9A4, size: 0x8, addend: 0x0, symName: __ZNKSt3__122__compressed_pair_elemINS_9allocatorIyEELi1ELb1EE5__getB8ue170006Ev, symObjAddr: 0x32D0, symBinAddr: 0x1000054E8, symSize: 0x14 }
  - { offsetInCU: 0xF9CA, offset: 0xF9CA, size: 0x8, addend: 0x0, symName: __ZNSt3__123__libcpp_numeric_limitsIlLb1EE3maxB8ue170006Ev, symObjAddr: 0x32E4, symBinAddr: 0x1000054FC, symSize: 0x8 }
  - { offsetInCU: 0xF9DE, offset: 0xF9DE, size: 0x8, addend: 0x0, symName: __ZNSt12length_errorC1B8ue170006EPKc, symObjAddr: 0x3350, symBinAddr: 0x100005568, symSize: 0x34 }
  - { offsetInCU: 0xFA16, offset: 0xFA16, size: 0x8, addend: 0x0, symName: __ZNSt12length_errorC2B8ue170006EPKc, symObjAddr: 0x3384, symBinAddr: 0x10000559C, symSize: 0x4C }
  - { offsetInCU: 0xFA4E, offset: 0xFA4E, size: 0x8, addend: 0x0, symName: __ZNSt3__19allocatorIyE8allocateB8ue170006Em, symObjAddr: 0x33D0, symBinAddr: 0x1000055E8, symSize: 0x58 }
  - { offsetInCU: 0xFA82, offset: 0xFA82, size: 0x8, addend: 0x0, symName: __ZNSt3__117__compressed_pairIPyNS_9allocatorIyEEE6secondB8ue170006Ev, symObjAddr: 0x34A8, symBinAddr: 0x1000056C0, symSize: 0x24 }
  - { offsetInCU: 0xFAA8, offset: 0xFAA8, size: 0x8, addend: 0x0, symName: __ZNSt3__122__compressed_pair_elemINS_9allocatorIyEELi1ELb1EE5__getB8ue170006Ev, symObjAddr: 0x34CC, symBinAddr: 0x1000056E4, symSize: 0x14 }
  - { offsetInCU: 0xFACE, offset: 0xFACE, size: 0x8, addend: 0x0, symName: __ZNSt3__117__compressed_pairIPyNS_9allocatorIyEEE5firstB8ue170006Ev, symObjAddr: 0x34E0, symBinAddr: 0x1000056F8, symSize: 0x24 }
  - { offsetInCU: 0xFAF4, offset: 0xFAF4, size: 0x8, addend: 0x0, symName: __ZNSt3__122__compressed_pair_elemIPyLi0ELb0EE5__getB8ue170006Ev, symObjAddr: 0x3504, symBinAddr: 0x10000571C, symSize: 0x14 }
  - { offsetInCU: 0xFB1A, offset: 0xFB1A, size: 0x8, addend: 0x0, symName: __ZNKSt3__16vectorIyNS_9allocatorIyEEE31__annotate_contiguous_containerB8ue170006EPKvS5_S5_S5_, symObjAddr: 0x3518, symBinAddr: 0x100005730, symSize: 0x20 }
  - { offsetInCU: 0xFB6C, offset: 0xFB6C, size: 0x8, addend: 0x0, symName: __ZNKSt3__16vectorIyNS_9allocatorIyEEE4dataB8ue170006Ev, symObjAddr: 0x3538, symBinAddr: 0x100005750, symSize: 0x28 }
  - { offsetInCU: 0xFB92, offset: 0xFB92, size: 0x8, addend: 0x0, symName: __ZNKSt3__16vectorIyNS_9allocatorIyEEE8capacityB8ue170006Ev, symObjAddr: 0x3560, symBinAddr: 0x100005778, symSize: 0x40 }
  - { offsetInCU: 0xFBB8, offset: 0xFBB8, size: 0x8, addend: 0x0, symName: __ZNKSt3__16vectorIyNS_9allocatorIyEEE9__end_capB8ue170006Ev, symObjAddr: 0x35B4, symBinAddr: 0x1000057CC, symSize: 0x28 }
  - { offsetInCU: 0xFBDE, offset: 0xFBDE, size: 0x8, addend: 0x0, symName: __ZNKSt3__117__compressed_pairIPyNS_9allocatorIyEEE5firstB8ue170006Ev, symObjAddr: 0x35DC, symBinAddr: 0x1000057F4, symSize: 0x24 }
  - { offsetInCU: 0xFC04, offset: 0xFC04, size: 0x8, addend: 0x0, symName: __ZNKSt3__122__compressed_pair_elemIPyLi0ELb0EE5__getB8ue170006Ev, symObjAddr: 0x3600, symBinAddr: 0x100005818, symSize: 0x14 }
  - { offsetInCU: 0xFC43, offset: 0xFC43, size: 0x8, addend: 0x0, symName: __ZNSt3__16vectorIyNS_9allocatorIyEEE21_ConstructTransactionC1B8ue170006ERS3_m, symObjAddr: 0x3614, symBinAddr: 0x10000582C, symSize: 0x3C }
  - { offsetInCU: 0xFC8B, offset: 0xFC8B, size: 0x8, addend: 0x0, symName: __ZNSt3__16vectorIyNS_9allocatorIyEEE21_ConstructTransactionD1B8ue170006Ev, symObjAddr: 0x36D0, symBinAddr: 0x1000058E8, symSize: 0x2C }
  - { offsetInCU: 0xFCB5, offset: 0xFCB5, size: 0x8, addend: 0x0, symName: __ZNSt3__16vectorIyNS_9allocatorIyEEE21_ConstructTransactionC2B8ue170006ERS3_m, symObjAddr: 0x36FC, symBinAddr: 0x100005914, symSize: 0x44 }
  - { offsetInCU: 0xFD1B, offset: 0xFD1B, size: 0x8, addend: 0x0, symName: __ZNSt3__14pairIPKyS2_EC1B8ue170006IS2_S2_LPv0EEEOT_OT0_, symObjAddr: 0x3894, symBinAddr: 0x100005AAC, symSize: 0x3C }
  - { offsetInCU: 0xFD79, offset: 0xFD79, size: 0x8, addend: 0x0, symName: __ZNSt3__14pairIPKyS2_EC2B8ue170006IS2_S2_LPv0EEEOT_OT0_, symObjAddr: 0x38D0, symBinAddr: 0x100005AE8, symSize: 0x34 }
  - { offsetInCU: 0xFDD7, offset: 0xFDD7, size: 0x8, addend: 0x0, symName: __ZNSt3__118__unwrap_iter_implIPKyLb1EE8__unwrapB8ue170006ES2_, symObjAddr: 0x3904, symBinAddr: 0x100005B1C, symSize: 0x24 }
  - { offsetInCU: 0xFE1D, offset: 0xFE1D, size: 0x8, addend: 0x0, symName: __ZNKSt3__114__copy_trivialclB8ue170006IKyyLi0EEENS_4pairIPT_PT0_EES5_S5_S7_, symObjAddr: 0x3AB8, symBinAddr: 0x100005CD0, symSize: 0x48 }
  - { offsetInCU: 0xFE8F, offset: 0xFE8F, size: 0x8, addend: 0x0, symName: __ZNSt3__14pairIPKyPyEC1B8ue170006IRS2_S3_LPv0EEEOT_OT0_, symObjAddr: 0x3C80, symBinAddr: 0x100005E98, symSize: 0x3C }
  - { offsetInCU: 0xFEED, offset: 0xFEED, size: 0x8, addend: 0x0, symName: __ZNSt3__14pairIPKyPyEC2B8ue170006IRS2_S3_LPv0EEEOT_OT0_, symObjAddr: 0x3CBC, symBinAddr: 0x100005ED4, symSize: 0x34 }
  - { offsetInCU: 0xFF4B, offset: 0xFF4B, size: 0x8, addend: 0x0, symName: __ZNSt3__14pairIPKyPyEC1B8ue170006IS2_S3_LPv0EEEOT_OT0_, symObjAddr: 0x3CF0, symBinAddr: 0x100005F08, symSize: 0x3C }
  - { offsetInCU: 0xFFA9, offset: 0xFFA9, size: 0x8, addend: 0x0, symName: __ZNSt3__14pairIPKyPyEC2B8ue170006IS2_S3_LPv0EEEOT_OT0_, symObjAddr: 0x3D2C, symBinAddr: 0x100005F44, symSize: 0x34 }
  - { offsetInCU: 0x10007, offset: 0x10007, size: 0x8, addend: 0x0, symName: __ZNSt3__118__unwrap_iter_implIPKyLb1EE8__rewrapB8ue170006ES2_S2_, symObjAddr: 0x3D9C, symBinAddr: 0x100005FB4, symSize: 0x50 }
  - { offsetInCU: 0x10038, offset: 0x10038, size: 0x8, addend: 0x0, symName: __ZNSt3__118__unwrap_iter_implIPyLb1EE8__unwrapB8ue170006ES1_, symObjAddr: 0x3DEC, symBinAddr: 0x100006004, symSize: 0x24 }
  - { offsetInCU: 0x1005B, offset: 0x1005B, size: 0x8, addend: 0x0, symName: __ZNSt3__118__unwrap_iter_implIPyLb1EE8__rewrapB8ue170006ES1_S1_, symObjAddr: 0x3E10, symBinAddr: 0x100006028, symSize: 0x50 }
  - { offsetInCU: 0x1008C, offset: 0x1008C, size: 0x8, addend: 0x0, symName: __ZNSt3__16vectorIyNS_9allocatorIyEEE21_ConstructTransactionD2B8ue170006Ev, symObjAddr: 0x3E60, symBinAddr: 0x100006078, symSize: 0x20 }
  - { offsetInCU: 0x100B6, offset: 0x100B6, size: 0x8, addend: 0x0, symName: __ZNSt3__128__exception_guard_exceptionsINS_6vectorIyNS_9allocatorIyEEE16__destroy_vectorEED2B8ue170006Ev, symObjAddr: 0x3E80, symBinAddr: 0x100006098, symSize: 0x50 }
  - { offsetInCU: 0x100E0, offset: 0x100E0, size: 0x8, addend: 0x0, symName: __ZNSt3__16vectorIyNS_9allocatorIyEEE16__destroy_vectorclB8ue170006Ev, symObjAddr: 0x3ED0, symBinAddr: 0x1000060E8, symSize: 0x90 }
  - { offsetInCU: 0x10106, offset: 0x10106, size: 0x8, addend: 0x0, symName: __ZNSt3__16vectorIyNS_9allocatorIyEEE7__clearB8ue170006Ev, symObjAddr: 0x3F60, symBinAddr: 0x100006178, symSize: 0x28 }
  - { offsetInCU: 0x1012C, offset: 0x1012C, size: 0x8, addend: 0x0, symName: __ZNKSt3__16vectorIyNS_9allocatorIyEEE17__annotate_deleteB8ue170006Ev, symObjAddr: 0x3F88, symBinAddr: 0x1000061A0, symSize: 0xB8 }
  - { offsetInCU: 0x10152, offset: 0x10152, size: 0x8, addend: 0x0, symName: __ZNSt3__116allocator_traitsINS_9allocatorIyEEE10deallocateB8ue170006ERS2_Pym, symObjAddr: 0x4040, symBinAddr: 0x100006258, symSize: 0x34 }
  - { offsetInCU: 0x10194, offset: 0x10194, size: 0x8, addend: 0x0, symName: __ZNSt3__16vectorIyNS_9allocatorIyEEE22__base_destruct_at_endB8ue170006EPy, symObjAddr: 0x4074, symBinAddr: 0x10000628C, symSize: 0x8C }
  - { offsetInCU: 0x101D8, offset: 0x101D8, size: 0x8, addend: 0x0, symName: __ZNSt3__116allocator_traitsINS_9allocatorIyEEE7destroyB8ue170006IyvEEvRS2_PT_, symObjAddr: 0x4100, symBinAddr: 0x100006318, symSize: 0x2C }
  - { offsetInCU: 0x10215, offset: 0x10215, size: 0x8, addend: 0x0, symName: __ZNSt3__19allocatorIyE7destroyB8ue170006EPy, symObjAddr: 0x412C, symBinAddr: 0x100006344, symSize: 0x14 }
  - { offsetInCU: 0x10249, offset: 0x10249, size: 0x8, addend: 0x0, symName: __ZNKSt3__16vectorIyNS_9allocatorIyEEE4sizeB8ue170006Ev, symObjAddr: 0x4140, symBinAddr: 0x100006358, symSize: 0x28 }
  - { offsetInCU: 0x1026F, offset: 0x1026F, size: 0x8, addend: 0x0, symName: __ZNSt3__19allocatorIyE10deallocateB8ue170006EPym, symObjAddr: 0x4168, symBinAddr: 0x100006380, symSize: 0x40 }
  - { offsetInCU: 0x102B1, offset: 0x102B1, size: 0x8, addend: 0x0, symName: __ZNSt3__16chrono10time_pointINS0_12steady_clockENS0_8durationIxNS_5ratioILl1ELl1000000000EEEEEEC2B8ue170006Ev, symObjAddr: 0x4224, symBinAddr: 0x10000643C, symSize: 0x34 }
  - { offsetInCU: 0x102DB, offset: 0x102DB, size: 0x8, addend: 0x0, symName: __ZNSt3__16chrono8durationIxNS_5ratioILl1ELl1000000000EEEE4zeroB8ue170006Ev, symObjAddr: 0x4258, symBinAddr: 0x100006470, symSize: 0x3C }
  - { offsetInCU: 0x102EF, offset: 0x102EF, size: 0x8, addend: 0x0, symName: __ZNSt3__16chrono15duration_valuesIxE4zeroB8ue170006Ev, symObjAddr: 0x4294, symBinAddr: 0x1000064AC, symSize: 0x8 }
  - { offsetInCU: 0x1030D, offset: 0x1030D, size: 0x8, addend: 0x0, symName: __ZNSt3__16chrono8durationIxNS_5ratioILl1ELl1000000000EEEEC1B8ue170006IxEERKT_PNS_9enable_ifIXaasr14is_convertibleIS8_xEE5valueooL_ZNS_17integral_constantIbLb0EE5valueEEntsr23treat_as_floating_pointIS6_EE5valueEvE4typeE, symObjAddr: 0x429C, symBinAddr: 0x1000064B4, symSize: 0x3C }
  - { offsetInCU: 0x10359, offset: 0x10359, size: 0x8, addend: 0x0, symName: __ZNSt3__16chrono8durationIxNS_5ratioILl1ELl1000000000EEEEC2B8ue170006IxEERKT_PNS_9enable_ifIXaasr14is_convertibleIS8_xEE5valueooL_ZNS_17integral_constantIbLb0EE5valueEEntsr23treat_as_floating_pointIS6_EE5valueEvE4typeE, symObjAddr: 0x42D8, symBinAddr: 0x1000064F0, symSize: 0x28 }
  - { offsetInCU: 0x103A5, offset: 0x103A5, size: 0x8, addend: 0x0, symName: __ZN11AppleEventsC2Ev, symObjAddr: 0x4300, symBinAddr: 0x100006518, symSize: 0x12C }
  - { offsetInCU: 0x103D3, offset: 0x103D3, size: 0x8, addend: 0x0, symName: __ZN20performance_countersC2Ed, symObjAddr: 0x442C, symBinAddr: 0x100006644, symSize: 0x38 }
  - { offsetInCU: 0x1040B, offset: 0x1040B, size: 0x8, addend: 0x0, symName: __ZL8lib_initv, symObjAddr: 0x4464, symBinAddr: 0x10000667C, symSize: 0x328 }
  - { offsetInCU: 0x104A3, offset: 0x104A3, size: 0x8, addend: 0x0, symName: __ZL22kpep_config_error_desci, symObjAddr: 0x478C, symBinAddr: 0x1000069A4, symSize: 0x68 }
  - { offsetInCU: 0x104D2, offset: 0x104D2, size: 0x8, addend: 0x0, symName: __ZL9get_eventP7kpep_dbPK11event_alias, symObjAddr: 0x47F4, symBinAddr: 0x100006A0C, symSize: 0xC0 }
  - { offsetInCU: 0x1055B, offset: 0x1055B, size: 0x8, addend: 0x0, symName: __ZL10lib_deinitv, symObjAddr: 0x48B4, symBinAddr: 0x100006ACC, symSize: 0x128 }
  - { offsetInCU: 0x105EF, offset: 0x105EF, size: 0x8, addend: 0x0, symName: __ZN11event_countD2Ev, symObjAddr: 0x49DC, symBinAddr: 0x100006BF4, symSize: 0x30 }
  - { offsetInCU: 0x1061B, offset: 0x1061B, size: 0x8, addend: 0x0, symName: __ZNSt3__16vectorIyNS_9allocatorIyEEED1B8ue170006Ev, symObjAddr: 0x4A0C, symBinAddr: 0x100006C24, symSize: 0x2C }
  - { offsetInCU: 0x10645, offset: 0x10645, size: 0x8, addend: 0x0, symName: __ZNSt3__16vectorIyNS_9allocatorIyEEED2B8ue170006Ev, symObjAddr: 0x4A38, symBinAddr: 0x100006C50, symSize: 0x40 }
  - { offsetInCU: 0x1066F, offset: 0x1066F, size: 0x8, addend: 0x0, symName: __ZN15event_collectorD2Ev, symObjAddr: 0x4A78, symBinAddr: 0x100006C90, symSize: 0x2C }
  - { offsetInCU: 0x1069B, offset: 0x1069B, size: 0x8, addend: 0x0, symName: __ZNK11event_count10elapsed_nsEv, symObjAddr: 0x4AA4, symBinAddr: 0x100006CBC, symSize: 0x38 }
  - { offsetInCU: 0x106C1, offset: 0x106C1, size: 0x8, addend: 0x0, symName: __ZNSt3__16chrono8durationIdNS_5ratioILl1ELl1000000000EEEEC1B8ue170006IdNS2_ILl1ELl1EEEEERKNS1_IT_T0_EEPNS_9enable_ifIXaasr13__no_overflowIS8_S3_EE5valueooL_ZNS_17integral_constantIbLb1EE5valueEEaaeqsr13__no_overflowIS8_S3_E4typeE3denLi1Entsr23treat_as_floating_pointIS7_EE5valueEvE4typeE, symObjAddr: 0x4ADC, symBinAddr: 0x100006CF4, symSize: 0x3C }
  - { offsetInCU: 0x10717, offset: 0x10717, size: 0x8, addend: 0x0, symName: __ZNKSt3__16chrono8durationIdNS_5ratioILl1ELl1000000000EEEE5countB8ue170006Ev, symObjAddr: 0x4B18, symBinAddr: 0x100006D30, symSize: 0x18 }
  - { offsetInCU: 0x1073D, offset: 0x1073D, size: 0x8, addend: 0x0, symName: __ZNSt3__16chrono8durationIdNS_5ratioILl1ELl1000000000EEEEC2B8ue170006IdNS2_ILl1ELl1EEEEERKNS1_IT_T0_EEPNS_9enable_ifIXaasr13__no_overflowIS8_S3_EE5valueooL_ZNS_17integral_constantIbLb1EE5valueEEaaeqsr13__no_overflowIS8_S3_E4typeE3denLi1Entsr23treat_as_floating_pointIS7_EE5valueEvE4typeE, symObjAddr: 0x4B30, symBinAddr: 0x100006D48, symSize: 0x48 }
  - { offsetInCU: 0x10793, offset: 0x10793, size: 0x8, addend: 0x0, symName: __ZNKSt3__16chrono8durationIdNS_5ratioILl1ELl1EEEE5countB8ue170006Ev, symObjAddr: 0x4BF4, symBinAddr: 0x100006E0C, symSize: 0x18 }
  - { offsetInCU: 0x107C3, offset: 0x107C3, size: 0x8, addend: 0x0, symName: __ZNSt3__16chrono8durationIdNS_5ratioILl1ELl1000000000EEEEC1B8ue170006IdEERKT_PNS_9enable_ifIXaasr14is_convertibleIS8_dEE5valueooL_ZNS_17integral_constantIbLb1EE5valueEEntsr23treat_as_floating_pointIS6_EE5valueEvE4typeE, symObjAddr: 0x4C0C, symBinAddr: 0x100006E24, symSize: 0x3C }
  - { offsetInCU: 0x1080F, offset: 0x1080F, size: 0x8, addend: 0x0, symName: __ZNSt3__16chrono8durationIdNS_5ratioILl1ELl1000000000EEEEC2B8ue170006IdEERKT_PNS_9enable_ifIXaasr14is_convertibleIS8_dEE5valueooL_ZNS_17integral_constantIbLb1EE5valueEEntsr23treat_as_floating_pointIS6_EE5valueEvE4typeE, symObjAddr: 0x4C48, symBinAddr: 0x100006E60, symSize: 0x28 }
  - { offsetInCU: 0x1085B, offset: 0x1085B, size: 0x8, addend: 0x0, symName: __ZNKSt3__16vectorIyNS_9allocatorIyEEEixB8ue170006Em, symObjAddr: 0x4C70, symBinAddr: 0x100006E88, symSize: 0x24 }
  - { offsetInCU: 0x10892, offset: 0x10892, size: 0x8, addend: 0x0, symName: __ZNSt3__114basic_ofstreamIcNS_11char_traitsIcEEED2Ev, symObjAddr: 0x4C94, symBinAddr: 0x100006EAC, symSize: 0x64 }
  - { offsetInCU: 0x108CC, offset: 0x108CC, size: 0x8, addend: 0x0, symName: __ZTv0_n24_NSt3__114basic_ofstreamIcNS_11char_traitsIcEEED1Ev, symObjAddr: 0x4CF8, symBinAddr: 0x100006F10, symSize: 0x28 }
  - { offsetInCU: 0x108E3, offset: 0x108E3, size: 0x8, addend: 0x0, symName: __ZN15event_aggregateD2Ev, symObjAddr: 0x4D20, symBinAddr: 0x100006F38, symSize: 0x48 }
  - { offsetInCU: 0x1090F, offset: 0x1090F, size: 0x8, addend: 0x0, symName: __ZNKSt3__112basic_stringIcNS_11char_traitsIcEENS_9allocatorIcEEE4dataB8ue170006Ev, symObjAddr: 0x4D68, symBinAddr: 0x100006F80, symSize: 0x28 }
  - { offsetInCU: 0x10935, offset: 0x10935, size: 0x8, addend: 0x0, symName: __ZNKSt3__112basic_stringIcNS_11char_traitsIcEENS_9allocatorIcEEE13__get_pointerB8ue170006Ev, symObjAddr: 0x4DA4, symBinAddr: 0x100006FBC, symSize: 0x54 }
  - { offsetInCU: 0x1095B, offset: 0x1095B, size: 0x8, addend: 0x0, symName: __ZNKSt3__112basic_stringIcNS_11char_traitsIcEENS_9allocatorIcEEE9__is_longB8ue170006Ev, symObjAddr: 0x4DF8, symBinAddr: 0x100007010, symSize: 0x38 }
  - { offsetInCU: 0x10981, offset: 0x10981, size: 0x8, addend: 0x0, symName: __ZNKSt3__112basic_stringIcNS_11char_traitsIcEENS_9allocatorIcEEE18__get_long_pointerB8ue170006Ev, symObjAddr: 0x4E30, symBinAddr: 0x100007048, symSize: 0x28 }
  - { offsetInCU: 0x109A7, offset: 0x109A7, size: 0x8, addend: 0x0, symName: __ZNKSt3__112basic_stringIcNS_11char_traitsIcEENS_9allocatorIcEEE19__get_short_pointerB8ue170006Ev, symObjAddr: 0x4E58, symBinAddr: 0x100007070, symSize: 0x28 }
  - { offsetInCU: 0x109CD, offset: 0x109CD, size: 0x8, addend: 0x0, symName: __ZNKSt3__117__compressed_pairINS_12basic_stringIcNS_11char_traitsIcEENS_9allocatorIcEEE5__repES5_E5firstB8ue170006Ev, symObjAddr: 0x4E80, symBinAddr: 0x100007098, symSize: 0x24 }
  - { offsetInCU: 0x109F3, offset: 0x109F3, size: 0x8, addend: 0x0, symName: __ZNKSt3__122__compressed_pair_elemINS_12basic_stringIcNS_11char_traitsIcEENS_9allocatorIcEEE5__repELi0ELb0EE5__getB8ue170006Ev, symObjAddr: 0x4EA4, symBinAddr: 0x1000070BC, symSize: 0x14 }
  - { offsetInCU: 0x10A19, offset: 0x10A19, size: 0x8, addend: 0x0, symName: __ZNSt3__114pointer_traitsIPKcE10pointer_toB8ue170006ERS1_, symObjAddr: 0x4EB8, symBinAddr: 0x1000070D0, symSize: 0x14 }
  - { offsetInCU: 0x10A3C, offset: 0x10A3C, size: 0x8, addend: 0x0, symName: __ZNSt3__112basic_stringIcNS_11char_traitsIcEENS_9allocatorIcEEEC2B8ue170006ILi0EEEPKc, symObjAddr: 0x4ECC, symBinAddr: 0x1000070E4, symSize: 0x58 }
  - { offsetInCU: 0x10A7B, offset: 0x10A7B, size: 0x8, addend: 0x0, symName: __ZNSt3__117__compressed_pairINS_12basic_stringIcNS_11char_traitsIcEENS_9allocatorIcEEE5__repES5_EC1B8ue170006INS_18__default_init_tagESA_EEOT_OT0_, symObjAddr: 0x4F24, symBinAddr: 0x10000713C, symSize: 0x3C }
  - { offsetInCU: 0x10AD3, offset: 0x10AD3, size: 0x8, addend: 0x0, symName: __ZNSt3__111char_traitsIcE6lengthB8ue170006EPKc, symObjAddr: 0x4F60, symBinAddr: 0x100007178, symSize: 0x34 }
  - { offsetInCU: 0x10AF6, offset: 0x10AF6, size: 0x8, addend: 0x0, symName: __ZNSt3__117__compressed_pairINS_12basic_stringIcNS_11char_traitsIcEENS_9allocatorIcEEE5__repES5_EC2B8ue170006INS_18__default_init_tagESA_EEOT_OT0_, symObjAddr: 0x4F94, symBinAddr: 0x1000071AC, symSize: 0x3C }
  - { offsetInCU: 0x10B4E, offset: 0x10B4E, size: 0x8, addend: 0x0, symName: __ZNSt3__122__compressed_pair_elemINS_12basic_stringIcNS_11char_traitsIcEENS_9allocatorIcEEE5__repELi0ELb0EEC2B8ue170006ENS_18__default_init_tagE, symObjAddr: 0x4FD0, symBinAddr: 0x1000071E8, symSize: 0x14 }
  - { offsetInCU: 0x10B82, offset: 0x10B82, size: 0x8, addend: 0x0, symName: __ZNSt3__122__compressed_pair_elemINS_9allocatorIcEELi1ELb1EEC2B8ue170006ENS_18__default_init_tagE, symObjAddr: 0x4FE4, symBinAddr: 0x1000071FC, symSize: 0x2C }
  - { offsetInCU: 0x10BB6, offset: 0x10BB6, size: 0x8, addend: 0x0, symName: __ZNSt3__19allocatorIcEC2B8ue170006Ev, symObjAddr: 0x5010, symBinAddr: 0x100007228, symSize: 0x2C }
  - { offsetInCU: 0x10BE0, offset: 0x10BE0, size: 0x8, addend: 0x0, symName: __ZNSt3__116__non_trivial_ifILb1ENS_9allocatorIcEEEC2B8ue170006Ev, symObjAddr: 0x503C, symBinAddr: 0x100007254, symSize: 0x14 }
  - { offsetInCU: 0x10C0A, offset: 0x10C0A, size: 0x8, addend: 0x0, symName: __ZNSt3__19basic_iosIcNS_11char_traitsIcEEEC2B8ue170006Ev, symObjAddr: 0x5074, symBinAddr: 0x10000728C, symSize: 0x44 }
  - { offsetInCU: 0x10C34, offset: 0x10C34, size: 0x8, addend: 0x0, symName: __ZNSt3__113basic_ostreamIcNS_11char_traitsIcEEEC2B8ue170006EPNS_15basic_streambufIcS2_EE, symObjAddr: 0x50B8, symBinAddr: 0x1000072D0, symSize: 0x60 }
  - { offsetInCU: 0x10C79, offset: 0x10C79, size: 0x8, addend: 0x0, symName: __ZNSt3__18ios_baseC2B8ue170006Ev, symObjAddr: 0x5118, symBinAddr: 0x100007330, symSize: 0x24 }
  - { offsetInCU: 0x10CA3, offset: 0x10CA3, size: 0x8, addend: 0x0, symName: __ZNSt3__19basic_iosIcNS_11char_traitsIcEEE4initB8ue170006EPNS_15basic_streambufIcS2_EE, symObjAddr: 0x513C, symBinAddr: 0x100007354, symSize: 0x44 }
  - { offsetInCU: 0x10CDA, offset: 0x10CDA, size: 0x8, addend: 0x0, symName: __ZNSt3__111char_traitsIcE3eofB8ue170006Ev, symObjAddr: 0x5180, symBinAddr: 0x100007398, symSize: 0x8 }
  - { offsetInCU: 0x10CEE, offset: 0x10CEE, size: 0x8, addend: 0x0, symName: __ZNKSt3__112basic_stringIcNS_11char_traitsIcEENS_9allocatorIcEEE4sizeB8ue170006Ev, symObjAddr: 0x5188, symBinAddr: 0x1000073A0, symSize: 0x54 }
  - { offsetInCU: 0x10D1E, offset: 0x10D1E, size: 0x8, addend: 0x0, symName: __ZNSt3__116allocator_traitsINS_9allocatorIcEEE37select_on_container_copy_constructionB8ue170006IS2_vvEES2_RKS2_, symObjAddr: 0x51DC, symBinAddr: 0x1000073F4, symSize: 0x10 }
  - { offsetInCU: 0x10D4D, offset: 0x10D4D, size: 0x8, addend: 0x0, symName: __ZNKSt3__112basic_stringIcNS_11char_traitsIcEENS_9allocatorIcEEE13get_allocatorB8ue170006Ev, symObjAddr: 0x51EC, symBinAddr: 0x100007404, symSize: 0x24 }
  - { offsetInCU: 0x10D73, offset: 0x10D73, size: 0x8, addend: 0x0, symName: __ZNSt3__112basic_stringIcNS_11char_traitsIcEENS_9allocatorIcEEEC1B8ue170006ENS_24__uninitialized_size_tagEmRKS4_, symObjAddr: 0x5210, symBinAddr: 0x100007428, symSize: 0x3C }
  - { offsetInCU: 0x10DC6, offset: 0x10DC6, size: 0x8, addend: 0x0, symName: __ZNSt3__112basic_stringIcNS_11char_traitsIcEENS_9allocatorIcEEE13__get_pointerB8ue170006Ev, symObjAddr: 0x5260, symBinAddr: 0x100007478, symSize: 0x54 }
  - { offsetInCU: 0x10DEC, offset: 0x10DEC, size: 0x8, addend: 0x0, symName: __ZNSt3__111char_traitsIcE4copyB8ue170006EPcPKcm, symObjAddr: 0x52B4, symBinAddr: 0x1000074CC, symSize: 0x40 }
  - { offsetInCU: 0x10E2B, offset: 0x10E2B, size: 0x8, addend: 0x0, symName: __ZNSt3__111char_traitsIcE6assignB8ue170006EPcmc, symObjAddr: 0x52F4, symBinAddr: 0x10000750C, symSize: 0x44 }
  - { offsetInCU: 0x10E6A, offset: 0x10E6A, size: 0x8, addend: 0x0, symName: __ZNKSt3__112basic_stringIcNS_11char_traitsIcEENS_9allocatorIcEEE15__get_long_sizeB8ue170006Ev, symObjAddr: 0x5338, symBinAddr: 0x100007550, symSize: 0x28 }
  - { offsetInCU: 0x10E90, offset: 0x10E90, size: 0x8, addend: 0x0, symName: __ZNKSt3__112basic_stringIcNS_11char_traitsIcEENS_9allocatorIcEEE16__get_short_sizeB8ue170006Ev, symObjAddr: 0x5360, symBinAddr: 0x100007578, symSize: 0x34 }
  - { offsetInCU: 0x10EB6, offset: 0x10EB6, size: 0x8, addend: 0x0, symName: __ZNKSt3__112basic_stringIcNS_11char_traitsIcEENS_9allocatorIcEEE7__allocB8ue170006Ev, symObjAddr: 0x5394, symBinAddr: 0x1000075AC, symSize: 0x24 }
  - { offsetInCU: 0x10EDC, offset: 0x10EDC, size: 0x8, addend: 0x0, symName: __ZNKSt3__117__compressed_pairINS_12basic_stringIcNS_11char_traitsIcEENS_9allocatorIcEEE5__repES5_E6secondB8ue170006Ev, symObjAddr: 0x53B8, symBinAddr: 0x1000075D0, symSize: 0x24 }
  - { offsetInCU: 0x10F02, offset: 0x10F02, size: 0x8, addend: 0x0, symName: __ZNKSt3__122__compressed_pair_elemINS_9allocatorIcEELi1ELb1EE5__getB8ue170006Ev, symObjAddr: 0x53DC, symBinAddr: 0x1000075F4, symSize: 0x14 }
  - { offsetInCU: 0x10F28, offset: 0x10F28, size: 0x8, addend: 0x0, symName: __ZNSt3__112basic_stringIcNS_11char_traitsIcEENS_9allocatorIcEEEC2B8ue170006ENS_24__uninitialized_size_tagEmRKS4_, symObjAddr: 0x53F0, symBinAddr: 0x100007608, symSize: 0x110 }
  - { offsetInCU: 0x10FA8, offset: 0x10FA8, size: 0x8, addend: 0x0, symName: __ZNSt3__117__compressed_pairINS_12basic_stringIcNS_11char_traitsIcEENS_9allocatorIcEEE5__repES5_EC1B8ue170006INS_18__default_init_tagERKS5_EEOT_OT0_, symObjAddr: 0x5500, symBinAddr: 0x100007718, symSize: 0x3C }
  - { offsetInCU: 0x11000, offset: 0x11000, size: 0x8, addend: 0x0, symName: __ZNKSt3__112basic_stringIcNS_11char_traitsIcEENS_9allocatorIcEEE8max_sizeB8ue170006Ev, symObjAddr: 0x553C, symBinAddr: 0x100007754, symSize: 0xAC }
  - { offsetInCU: 0x11053, offset: 0x11053, size: 0x8, addend: 0x0, symName: __ZNKSt3__112basic_stringIcNS_11char_traitsIcEENS_9allocatorIcEEE20__throw_length_errorB8ue170006Ev, symObjAddr: 0x55E8, symBinAddr: 0x100007800, symSize: 0x1C }
  - { offsetInCU: 0x11079, offset: 0x11079, size: 0x8, addend: 0x0, symName: __ZNSt3__112basic_stringIcNS_11char_traitsIcEENS_9allocatorIcEEE13__fits_in_ssoB8ue170006Em, symObjAddr: 0x5604, symBinAddr: 0x10000781C, symSize: 0x20 }
  - { offsetInCU: 0x1109D, offset: 0x1109D, size: 0x8, addend: 0x0, symName: __ZNSt3__117__compressed_pairINS_12basic_stringIcNS_11char_traitsIcEENS_9allocatorIcEEE5__repES5_E5firstB8ue170006Ev, symObjAddr: 0x5624, symBinAddr: 0x10000783C, symSize: 0x24 }
  - { offsetInCU: 0x110C3, offset: 0x110C3, size: 0x8, addend: 0x0, symName: __ZNSt3__112basic_stringIcNS_11char_traitsIcEENS_9allocatorIcEEE16__set_short_sizeB8ue170006Em, symObjAddr: 0x5648, symBinAddr: 0x100007860, symSize: 0x78 }
  - { offsetInCU: 0x110F8, offset: 0x110F8, size: 0x8, addend: 0x0, symName: __ZNSt3__112basic_stringIcNS_11char_traitsIcEENS_9allocatorIcEEE11__recommendB8ue170006Em, symObjAddr: 0x56C0, symBinAddr: 0x1000078D8, symSize: 0x84 }
  - { offsetInCU: 0x1112B, offset: 0x1112B, size: 0x8, addend: 0x0, symName: __ZNSt3__116allocator_traitsINS_9allocatorIcEEE8allocateB8ue170006ERS2_m, symObjAddr: 0x5744, symBinAddr: 0x10000795C, symSize: 0x2C }
  - { offsetInCU: 0x1115E, offset: 0x1115E, size: 0x8, addend: 0x0, symName: __ZNSt3__112basic_stringIcNS_11char_traitsIcEENS_9allocatorIcEEE7__allocB8ue170006Ev, symObjAddr: 0x5770, symBinAddr: 0x100007988, symSize: 0x24 }
  - { offsetInCU: 0x11184, offset: 0x11184, size: 0x8, addend: 0x0, symName: __ZNSt3__112basic_stringIcNS_11char_traitsIcEENS_9allocatorIcEEE16__begin_lifetimeB8ue170006EPcm, symObjAddr: 0x5794, symBinAddr: 0x1000079AC, symSize: 0x14 }
  - { offsetInCU: 0x111B7, offset: 0x111B7, size: 0x8, addend: 0x0, symName: __ZNSt3__112basic_stringIcNS_11char_traitsIcEENS_9allocatorIcEEE14__set_long_capB8ue170006Em, symObjAddr: 0x57A8, symBinAddr: 0x1000079C0, symSize: 0x70 }
  - { offsetInCU: 0x111EC, offset: 0x111EC, size: 0x8, addend: 0x0, symName: __ZNSt3__112basic_stringIcNS_11char_traitsIcEENS_9allocatorIcEEE18__set_long_pointerB8ue170006EPc, symObjAddr: 0x5818, symBinAddr: 0x100007A30, symSize: 0x38 }
  - { offsetInCU: 0x11221, offset: 0x11221, size: 0x8, addend: 0x0, symName: __ZNSt3__112basic_stringIcNS_11char_traitsIcEENS_9allocatorIcEEE15__set_long_sizeB8ue170006Em, symObjAddr: 0x5850, symBinAddr: 0x100007A68, symSize: 0x38 }
  - { offsetInCU: 0x11256, offset: 0x11256, size: 0x8, addend: 0x0, symName: __ZNSt3__117__compressed_pairINS_12basic_stringIcNS_11char_traitsIcEENS_9allocatorIcEEE5__repES5_EC2B8ue170006INS_18__default_init_tagERKS5_EEOT_OT0_, symObjAddr: 0x5888, symBinAddr: 0x100007AA0, symSize: 0x40 }
  - { offsetInCU: 0x112AE, offset: 0x112AE, size: 0x8, addend: 0x0, symName: __ZNSt3__122__compressed_pair_elemINS_9allocatorIcEELi1ELb1EEC2B8ue170006IRKS2_vEEOT_, symObjAddr: 0x58C8, symBinAddr: 0x100007AE0, symSize: 0x18 }
  - { offsetInCU: 0x112F0, offset: 0x112F0, size: 0x8, addend: 0x0, symName: __ZNSt3__116allocator_traitsINS_9allocatorIcEEE8max_sizeB8ue170006IS2_vEEmRKS2_, symObjAddr: 0x58E0, symBinAddr: 0x100007AF8, symSize: 0x24 }
  - { offsetInCU: 0x1131E, offset: 0x1131E, size: 0x8, addend: 0x0, symName: __ZNSt3__114numeric_limitsImE3maxB8ue170006Ev, symObjAddr: 0x5904, symBinAddr: 0x100007B1C, symSize: 0x14 }
  - { offsetInCU: 0x11332, offset: 0x11332, size: 0x8, addend: 0x0, symName: __ZNKSt3__19allocatorIcE8max_sizeB8ue170006Ev, symObjAddr: 0x5918, symBinAddr: 0x100007B30, symSize: 0x14 }
  - { offsetInCU: 0x11358, offset: 0x11358, size: 0x8, addend: 0x0, symName: __ZNSt3__123__libcpp_numeric_limitsImLb1EE3maxB8ue170006Ev, symObjAddr: 0x592C, symBinAddr: 0x100007B44, symSize: 0x8 }
  - { offsetInCU: 0x1136C, offset: 0x1136C, size: 0x8, addend: 0x0, symName: __ZNSt3__122__compressed_pair_elemINS_12basic_stringIcNS_11char_traitsIcEENS_9allocatorIcEEE5__repELi0ELb0EE5__getB8ue170006Ev, symObjAddr: 0x5934, symBinAddr: 0x100007B4C, symSize: 0x14 }
  - { offsetInCU: 0x11392, offset: 0x11392, size: 0x8, addend: 0x0, symName: __ZNSt3__112basic_stringIcNS_11char_traitsIcEENS_9allocatorIcEEE10__align_itB8ue170006ILm16EEEmm, symObjAddr: 0x5948, symBinAddr: 0x100007B60, symSize: 0x1C }
  - { offsetInCU: 0x113C0, offset: 0x113C0, size: 0x8, addend: 0x0, symName: __ZNSt3__19allocatorIcE8allocateB8ue170006Em, symObjAddr: 0x5964, symBinAddr: 0x100007B7C, symSize: 0x58 }
  - { offsetInCU: 0x113F4, offset: 0x113F4, size: 0x8, addend: 0x0, symName: __ZNSt3__117__compressed_pairINS_12basic_stringIcNS_11char_traitsIcEENS_9allocatorIcEEE5__repES5_E6secondB8ue170006Ev, symObjAddr: 0x59BC, symBinAddr: 0x100007BD4, symSize: 0x24 }
  - { offsetInCU: 0x1141A, offset: 0x1141A, size: 0x8, addend: 0x0, symName: __ZNSt3__122__compressed_pair_elemINS_9allocatorIcEELi1ELb1EE5__getB8ue170006Ev, symObjAddr: 0x59E0, symBinAddr: 0x100007BF8, symSize: 0x14 }
  - { offsetInCU: 0x11440, offset: 0x11440, size: 0x8, addend: 0x0, symName: __ZNSt3__112basic_stringIcNS_11char_traitsIcEENS_9allocatorIcEEE18__get_long_pointerB8ue170006Ev, symObjAddr: 0x59F4, symBinAddr: 0x100007C0C, symSize: 0x28 }
  - { offsetInCU: 0x11466, offset: 0x11466, size: 0x8, addend: 0x0, symName: __ZNSt3__112basic_stringIcNS_11char_traitsIcEENS_9allocatorIcEEE19__get_short_pointerB8ue170006Ev, symObjAddr: 0x5A1C, symBinAddr: 0x100007C34, symSize: 0x28 }
  - { offsetInCU: 0x1148C, offset: 0x1148C, size: 0x8, addend: 0x0, symName: __ZNSt3__114pointer_traitsIPcE10pointer_toB8ue170006ERc, symObjAddr: 0x5A44, symBinAddr: 0x100007C5C, symSize: 0x14 }
  - { offsetInCU: 0x114C8, offset: 0x114C8, size: 0x8, addend: 0x0, symName: __ZNKSt3__114__copy_trivialclB8ue170006IKccLi0EEENS_4pairIPT_PT0_EES5_S5_S7_, symObjAddr: 0x5C78, symBinAddr: 0x100007E90, symSize: 0x48 }
  - { offsetInCU: 0x1154E, offset: 0x1154E, size: 0x8, addend: 0x0, symName: __ZNSt3__14pairIPKcS2_EC1B8ue170006IS2_S2_LPv0EEEOT_OT0_, symObjAddr: 0x5DE0, symBinAddr: 0x100007FF8, symSize: 0x3C }
  - { offsetInCU: 0x115AC, offset: 0x115AC, size: 0x8, addend: 0x0, symName: __ZNSt3__14pairIPKcS2_EC2B8ue170006IS2_S2_LPv0EEEOT_OT0_, symObjAddr: 0x5E1C, symBinAddr: 0x100008034, symSize: 0x34 }
  - { offsetInCU: 0x1160A, offset: 0x1160A, size: 0x8, addend: 0x0, symName: __ZNSt3__118__unwrap_iter_implIPKcLb1EE8__unwrapB8ue170006ES2_, symObjAddr: 0x5E50, symBinAddr: 0x100008068, symSize: 0x24 }
  - { offsetInCU: 0x11637, offset: 0x11637, size: 0x8, addend: 0x0, symName: __ZNSt3__14pairIPKcPcEC1B8ue170006IRS2_S3_LPv0EEEOT_OT0_, symObjAddr: 0x5F88, symBinAddr: 0x1000081A0, symSize: 0x3C }
  - { offsetInCU: 0x11695, offset: 0x11695, size: 0x8, addend: 0x0, symName: __ZNSt3__14pairIPKcPcEC2B8ue170006IRS2_S3_LPv0EEEOT_OT0_, symObjAddr: 0x5FC4, symBinAddr: 0x1000081DC, symSize: 0x34 }
  - { offsetInCU: 0x116F3, offset: 0x116F3, size: 0x8, addend: 0x0, symName: __ZNSt3__118__unwrap_iter_implIPcLb1EE8__unwrapB8ue170006ES1_, symObjAddr: 0x5FF8, symBinAddr: 0x100008210, symSize: 0x24 }
  - { offsetInCU: 0x11716, offset: 0x11716, size: 0x8, addend: 0x0, symName: __ZNSt3__14pairIPKcPcEC1B8ue170006IS2_S3_LPv0EEEOT_OT0_, symObjAddr: 0x601C, symBinAddr: 0x100008234, symSize: 0x3C }
  - { offsetInCU: 0x11774, offset: 0x11774, size: 0x8, addend: 0x0, symName: __ZNSt3__14pairIPKcPcEC2B8ue170006IS2_S3_LPv0EEEOT_OT0_, symObjAddr: 0x6058, symBinAddr: 0x100008270, symSize: 0x34 }
  - { offsetInCU: 0x117D2, offset: 0x117D2, size: 0x8, addend: 0x0, symName: __ZNSt3__118__unwrap_iter_implIPKcLb1EE8__rewrapB8ue170006ES2_S2_, symObjAddr: 0x60C8, symBinAddr: 0x1000082E0, symSize: 0x48 }
  - { offsetInCU: 0x11803, offset: 0x11803, size: 0x8, addend: 0x0, symName: __ZNSt3__118__unwrap_iter_implIPcLb1EE8__rewrapB8ue170006ES1_S1_, symObjAddr: 0x6110, symBinAddr: 0x100008328, symSize: 0x48 }
  - { offsetInCU: 0x11852, offset: 0x11852, size: 0x8, addend: 0x0, symName: __ZNKSt3__113basic_ostreamIcNS_11char_traitsIcEEE6sentrycvbB8ue170006Ev, symObjAddr: 0x6400, symBinAddr: 0x100008618, symSize: 0x1C }
  - { offsetInCU: 0x11878, offset: 0x11878, size: 0x8, addend: 0x0, symName: __ZNSt3__119ostreambuf_iteratorIcNS_11char_traitsIcEEEC1B8ue170006ERNS_13basic_ostreamIcS2_EE, symObjAddr: 0x665C, symBinAddr: 0x100008874, symSize: 0x34 }
  - { offsetInCU: 0x118B0, offset: 0x118B0, size: 0x8, addend: 0x0, symName: __ZNKSt3__18ios_base5flagsB8ue170006Ev, symObjAddr: 0x6690, symBinAddr: 0x1000088A8, symSize: 0x18 }
  - { offsetInCU: 0x118D8, offset: 0x118D8, size: 0x8, addend: 0x0, symName: __ZNKSt3__19basic_iosIcNS_11char_traitsIcEEE4fillB8ue170006Ev, symObjAddr: 0x66A8, symBinAddr: 0x1000088C0, symSize: 0x64 }
  - { offsetInCU: 0x11900, offset: 0x11900, size: 0x8, addend: 0x0, symName: __ZNKSt3__119ostreambuf_iteratorIcNS_11char_traitsIcEEE6failedB8ue170006Ev, symObjAddr: 0x670C, symBinAddr: 0x100008924, symSize: 0x24 }
  - { offsetInCU: 0x11926, offset: 0x11926, size: 0x8, addend: 0x0, symName: __ZNSt3__19basic_iosIcNS_11char_traitsIcEEE8setstateB8ue170006Ej, symObjAddr: 0x6730, symBinAddr: 0x100008948, symSize: 0x2C }
  - { offsetInCU: 0x1195B, offset: 0x1195B, size: 0x8, addend: 0x0, symName: __ZNKSt3__18ios_base5widthB8ue170006Ev, symObjAddr: 0x675C, symBinAddr: 0x100008974, symSize: 0x18 }
  - { offsetInCU: 0x11983, offset: 0x11983, size: 0x8, addend: 0x0, symName: __ZNSt3__115basic_streambufIcNS_11char_traitsIcEEE5sputnB8ue170006EPKcl, symObjAddr: 0x6774, symBinAddr: 0x10000898C, symSize: 0x3C }
  - { offsetInCU: 0x119C5, offset: 0x119C5, size: 0x8, addend: 0x0, symName: __ZNSt3__112basic_stringIcNS_11char_traitsIcEENS_9allocatorIcEEEC1B8ue170006Emc, symObjAddr: 0x67B0, symBinAddr: 0x1000089C8, symSize: 0x3C }
  - { offsetInCU: 0x11A0D, offset: 0x11A0D, size: 0x8, addend: 0x0, symName: __ZNSt3__18ios_base5widthB8ue170006El, symObjAddr: 0x67EC, symBinAddr: 0x100008A04, symSize: 0x2C }
  - { offsetInCU: 0x11A53, offset: 0x11A53, size: 0x8, addend: 0x0, symName: __ZNSt3__112basic_stringIcNS_11char_traitsIcEENS_9allocatorIcEEEC2B8ue170006Emc, symObjAddr: 0x6818, symBinAddr: 0x100008A30, symSize: 0x4C }
  - { offsetInCU: 0x11A9B, offset: 0x11A9B, size: 0x8, addend: 0x0, symName: __ZNSt3__119ostreambuf_iteratorIcNS_11char_traitsIcEEEC2B8ue170006ERNS_13basic_ostreamIcS2_EE, symObjAddr: 0x6864, symBinAddr: 0x100008A7C, symSize: 0x54 }
  - { offsetInCU: 0x11AD3, offset: 0x11AD3, size: 0x8, addend: 0x0, symName: __ZNKSt3__19basic_iosIcNS_11char_traitsIcEEE5rdbufB8ue170006Ev, symObjAddr: 0x68B8, symBinAddr: 0x100008AD0, symSize: 0x24 }
  - { offsetInCU: 0x11AFB, offset: 0x11AFB, size: 0x8, addend: 0x0, symName: __ZNKSt3__18ios_base5rdbufB8ue170006Ev, symObjAddr: 0x68DC, symBinAddr: 0x100008AF4, symSize: 0x18 }
  - { offsetInCU: 0x11B21, offset: 0x11B21, size: 0x8, addend: 0x0, symName: __ZNSt3__111char_traitsIcE11eq_int_typeB8ue170006Eii, symObjAddr: 0x68F4, symBinAddr: 0x100008B0C, symSize: 0x28 }
  - { offsetInCU: 0x11B54, offset: 0x11B54, size: 0x8, addend: 0x0, symName: __ZNKSt3__19basic_iosIcNS_11char_traitsIcEEE5widenB8ue170006Ec, symObjAddr: 0x691C, symBinAddr: 0x100008B34, symSize: 0x84 }
  - { offsetInCU: 0x11BBD, offset: 0x11BBD, size: 0x8, addend: 0x0, symName: __ZNKSt3__15ctypeIcE5widenB8ue170006Ec, symObjAddr: 0x69CC, symBinAddr: 0x100008BE4, symSize: 0x38 }
  - { offsetInCU: 0x11BF2, offset: 0x11BF2, size: 0x8, addend: 0x0, symName: __ZNSt3__18ios_base8setstateB8ue170006Ej, symObjAddr: 0x6A04, symBinAddr: 0x100008C1C, symSize: 0x34 }
  - { offsetInCU: 0x11C29, offset: 0x11C29, size: 0x8, addend: 0x0, symName: __ZN15event_collector5startEv, symObjAddr: 0x6A38, symBinAddr: 0x100008C50, symSize: 0x78 }
  - { offsetInCU: 0x11C4F, offset: 0x11C4F, size: 0x8, addend: 0x0, symName: __ZN15event_collector3endEv, symObjAddr: 0x6AB0, symBinAddr: 0x100008CC8, symSize: 0x168 }
  - { offsetInCU: 0x11CA0, offset: 0x11CA0, size: 0x8, addend: 0x0, symName: __ZN11event_countC1ERKS_, symObjAddr: 0x6C18, symBinAddr: 0x100008E30, symSize: 0x34 }
  - { offsetInCU: 0x11CD8, offset: 0x11CD8, size: 0x8, addend: 0x0, symName: __ZN15event_aggregatelsERK11event_count, symObjAddr: 0x6C4C, symBinAddr: 0x100008E64, symSize: 0xC8 }
  - { offsetInCU: 0x11D0C, offset: 0x11D0C, size: 0x8, addend: 0x0, symName: __ZN20performance_countersC1Eyyyy, symObjAddr: 0x6E08, symBinAddr: 0x100009020, symSize: 0x4C }
  - { offsetInCU: 0x11D6E, offset: 0x11D6E, size: 0x8, addend: 0x0, symName: __ZN20performance_countersC2Eyyyy, symObjAddr: 0x6E54, symBinAddr: 0x10000906C, symSize: 0x54 }
  - { offsetInCU: 0x11DCF, offset: 0x11DCF, size: 0x8, addend: 0x0, symName: __ZmiRK20performance_countersS1_, symObjAddr: 0x6EA8, symBinAddr: 0x1000090C0, symSize: 0x88 }
  - { offsetInCU: 0x11E0A, offset: 0x11E0A, size: 0x8, addend: 0x0, symName: __ZNSt3__16vectorIyNS_9allocatorIyEEEixB8ue170006Em, symObjAddr: 0x6F30, symBinAddr: 0x100009148, symSize: 0x24 }
  - { offsetInCU: 0x11E41, offset: 0x11E41, size: 0x8, addend: 0x0, symName: __ZNSt3__16chrono8durationIdNS_5ratioILl1ELl1EEEEC1B8ue170006IxNS2_ILl1ELl1000000000EEEEERKNS1_IT_T0_EEPNS_9enable_ifIXaasr13__no_overflowIS8_S3_EE5valueooL_ZNS_17integral_constantIbLb1EE5valueEEaaeqsr13__no_overflowIS8_S3_E4typeE3denLi1Entsr23treat_as_floating_pointIS7_EE5valueEvE4typeE, symObjAddr: 0x6FAC, symBinAddr: 0x1000091C4, symSize: 0x3C }
  - { offsetInCU: 0x11E97, offset: 0x11E97, size: 0x8, addend: 0x0, symName: __ZN20performance_countersC1Edddd, symObjAddr: 0x6FE8, symBinAddr: 0x100009200, symSize: 0x4C }
  - { offsetInCU: 0x11EF9, offset: 0x11EF9, size: 0x8, addend: 0x0, symName: __ZN20performance_countersC2Edddd, symObjAddr: 0x7034, symBinAddr: 0x10000924C, symSize: 0x44 }
  - { offsetInCU: 0x11F5B, offset: 0x11F5B, size: 0x8, addend: 0x0, symName: __ZNKSt3__16chrono10time_pointINS0_12steady_clockENS0_8durationIxNS_5ratioILl1ELl1000000000EEEEEE16time_since_epochB8ue170006Ev, symObjAddr: 0x70E8, symBinAddr: 0x100009300, symSize: 0x20 }
  - { offsetInCU: 0x11F81, offset: 0x11F81, size: 0x8, addend: 0x0, symName: __ZNKSt3__16chrono8durationIxNS_5ratioILl1ELl1000000000EEEE5countB8ue170006Ev, symObjAddr: 0x7108, symBinAddr: 0x100009320, symSize: 0x18 }
  - { offsetInCU: 0x11FA7, offset: 0x11FA7, size: 0x8, addend: 0x0, symName: __ZNSt3__16chrono8durationIdNS_5ratioILl1ELl1EEEEC2B8ue170006IxNS2_ILl1ELl1000000000EEEEERKNS1_IT_T0_EEPNS_9enable_ifIXaasr13__no_overflowIS8_S3_EE5valueooL_ZNS_17integral_constantIbLb1EE5valueEEaaeqsr13__no_overflowIS8_S3_E4typeE3denLi1Entsr23treat_as_floating_pointIS7_EE5valueEvE4typeE, symObjAddr: 0x7120, symBinAddr: 0x100009338, symSize: 0x48 }
  - { offsetInCU: 0x11FFD, offset: 0x11FFD, size: 0x8, addend: 0x0, symName: __ZNSt3__16chrono8durationIdNS_5ratioILl1ELl1EEEEC1B8ue170006IdEERKT_PNS_9enable_ifIXaasr14is_convertibleIS8_dEE5valueooL_ZNS_17integral_constantIbLb1EE5valueEEntsr23treat_as_floating_pointIS6_EE5valueEvE4typeE, symObjAddr: 0x71E8, symBinAddr: 0x100009400, symSize: 0x3C }
  - { offsetInCU: 0x12049, offset: 0x12049, size: 0x8, addend: 0x0, symName: __ZNSt3__16chrono8durationIdNS_5ratioILl1ELl1EEEEC2B8ue170006IdEERKT_PNS_9enable_ifIXaasr14is_convertibleIS8_dEE5valueooL_ZNS_17integral_constantIbLb1EE5valueEEntsr23treat_as_floating_pointIS6_EE5valueEvE4typeE, symObjAddr: 0x7224, symBinAddr: 0x10000943C, symSize: 0x28 }
  - { offsetInCU: 0x12095, offset: 0x12095, size: 0x8, addend: 0x0, symName: __ZN11event_countC2ERKS_, symObjAddr: 0x724C, symBinAddr: 0x100009464, symSize: 0x48 }
  - { offsetInCU: 0x120CD, offset: 0x120CD, size: 0x8, addend: 0x0, symName: __ZNSt3__16vectorIyNS_9allocatorIyEEEC1ERKS3_, symObjAddr: 0x7294, symBinAddr: 0x1000094AC, symSize: 0x34 }
  - { offsetInCU: 0x12108, offset: 0x12108, size: 0x8, addend: 0x0, symName: __ZNSt3__16vectorIyNS_9allocatorIyEEEC2ERKS3_, symObjAddr: 0x72C8, symBinAddr: 0x1000094E0, symSize: 0x94 }
  - { offsetInCU: 0x12143, offset: 0x12143, size: 0x8, addend: 0x0, symName: __ZNSt3__116allocator_traitsINS_9allocatorIyEEE37select_on_container_copy_constructionB8ue170006IS2_vvEES2_RKS2_, symObjAddr: 0x735C, symBinAddr: 0x100009574, symSize: 0x10 }
  - { offsetInCU: 0x12177, offset: 0x12177, size: 0x8, addend: 0x0, symName: __ZNSt3__117__compressed_pairIPyNS_9allocatorIyEEEC1B8ue170006IDnS3_EEOT_OT0_, symObjAddr: 0x736C, symBinAddr: 0x100009584, symSize: 0x3C }
  - { offsetInCU: 0x121CF, offset: 0x121CF, size: 0x8, addend: 0x0, symName: __ZNSt3__16vectorIyNS_9allocatorIyEEE16__init_with_sizeB8ue170006IPyS5_EEvT_T0_m, symObjAddr: 0x73A8, symBinAddr: 0x1000095C0, symSize: 0xB8 }
  - { offsetInCU: 0x12243, offset: 0x12243, size: 0x8, addend: 0x0, symName: __ZNSt3__117__compressed_pairIPyNS_9allocatorIyEEEC2B8ue170006IDnS3_EEOT_OT0_, symObjAddr: 0x7460, symBinAddr: 0x100009678, symSize: 0x44 }
  - { offsetInCU: 0x1229B, offset: 0x1229B, size: 0x8, addend: 0x0, symName: __ZNSt3__122__compressed_pair_elemINS_9allocatorIyEELi1ELb1EEC2B8ue170006IS2_vEEOT_, symObjAddr: 0x74A4, symBinAddr: 0x1000096BC, symSize: 0x18 }
  - { offsetInCU: 0x122DD, offset: 0x122DD, size: 0x8, addend: 0x0, symName: __ZNSt3__16vectorIyNS_9allocatorIyEEE18__construct_at_endIPyS5_EEvT_T0_m, symObjAddr: 0x74BC, symBinAddr: 0x1000096D4, symSize: 0x8C }
  - { offsetInCU: 0x1236C, offset: 0x1236C, size: 0x8, addend: 0x0, symName: __ZNSt3__14pairIPyS1_EC1B8ue170006IS1_S1_LPv0EEEOT_OT0_, symObjAddr: 0x7698, symBinAddr: 0x1000098B0, symSize: 0x3C }
  - { offsetInCU: 0x123CA, offset: 0x123CA, size: 0x8, addend: 0x0, symName: __ZNSt3__14pairIPyS1_EC2B8ue170006IS1_S1_LPv0EEEOT_OT0_, symObjAddr: 0x76D4, symBinAddr: 0x1000098EC, symSize: 0x34 }
  - { offsetInCU: 0x12428, offset: 0x12428, size: 0x8, addend: 0x0, symName: __ZNKSt3__114__copy_trivialclB8ue170006IyyLi0EEENS_4pairIPT_PT0_EES4_S4_S6_, symObjAddr: 0x7884, symBinAddr: 0x100009A9C, symSize: 0x48 }
  - { offsetInCU: 0x12490, offset: 0x12490, size: 0x8, addend: 0x0, symName: __ZNSt3__14pairIPyS1_EC1B8ue170006IRS1_S1_LPv0EEEOT_OT0_, symObjAddr: 0x7A14, symBinAddr: 0x100009C2C, symSize: 0x3C }
  - { offsetInCU: 0x124EE, offset: 0x124EE, size: 0x8, addend: 0x0, symName: __ZNSt3__14pairIPyS1_EC2B8ue170006IRS1_S1_LPv0EEEOT_OT0_, symObjAddr: 0x7A50, symBinAddr: 0x100009C68, symSize: 0x34 }
  - { offsetInCU: 0x1254C, offset: 0x1254C, size: 0x8, addend: 0x0, symName: __ZN11event_countaSERKS_, symObjAddr: 0x7AB8, symBinAddr: 0x100009CD0, symSize: 0x48 }
  - { offsetInCU: 0x12580, offset: 0x12580, size: 0x8, addend: 0x0, symName: __ZN11event_countpLERKS_, symObjAddr: 0x7B30, symBinAddr: 0x100009D48, symSize: 0x70 }
  - { offsetInCU: 0x125BE, offset: 0x125BE, size: 0x8, addend: 0x0, symName: __ZNKSt3__16chrono13__duration_ltINS0_8durationIdNS_5ratioILl1ELl1EEEEES5_EclB8ue170006ERKS5_S8_, symObjAddr: 0x7BA0, symBinAddr: 0x100009DB8, symSize: 0x4C }
  - { offsetInCU: 0x12602, offset: 0x12602, size: 0x8, addend: 0x0, symName: __ZNSt3__16vectorIyNS_9allocatorIyEEEaSB8ue170006ERKS3_, symObjAddr: 0x7BEC, symBinAddr: 0x100009E04, symSize: 0x68 }
  - { offsetInCU: 0x12639, offset: 0x12639, size: 0x8, addend: 0x0, symName: __ZNSt3__16vectorIyNS_9allocatorIyEEE19__copy_assign_allocB8ue170006ERKS3_, symObjAddr: 0x7C54, symBinAddr: 0x100009E6C, symSize: 0x2C }
  - { offsetInCU: 0x1266E, offset: 0x1266E, size: 0x8, addend: 0x0, symName: __ZNSt3__16vectorIyNS_9allocatorIyEEE6assignIPyLi0EEEvT_S6_, symObjAddr: 0x7C80, symBinAddr: 0x100009E98, symSize: 0x5C }
  - { offsetInCU: 0x126C3, offset: 0x126C3, size: 0x8, addend: 0x0, symName: __ZNSt3__16vectorIyNS_9allocatorIyEEE19__copy_assign_allocB8ue170006ERKS3_NS_17integral_constantIbLb0EEE, symObjAddr: 0x7CDC, symBinAddr: 0x100009EF4, symSize: 0x14 }
  - { offsetInCU: 0x126FF, offset: 0x126FF, size: 0x8, addend: 0x0, symName: __ZNSt3__16vectorIyNS_9allocatorIyEEE18__assign_with_sizeB8ue170006IPyS5_EEvT_T0_l, symObjAddr: 0x7CF0, symBinAddr: 0x100009F08, symSize: 0x164 }
  - { offsetInCU: 0x127B1, offset: 0x127B1, size: 0x8, addend: 0x0, symName: __ZNSt3__16vectorIyNS_9allocatorIyEEE17__destruct_at_endB8ue170006EPy, symObjAddr: 0x7EB4, symBinAddr: 0x10000A0CC, symSize: 0x4C }
  - { offsetInCU: 0x127F5, offset: 0x127F5, size: 0x8, addend: 0x0, symName: __ZNSt3__16vectorIyNS_9allocatorIyEEE13__vdeallocateEv, symObjAddr: 0x7F00, symBinAddr: 0x10000A118, symSize: 0x94 }
  - { offsetInCU: 0x1281D, offset: 0x1281D, size: 0x8, addend: 0x0, symName: __ZNKSt3__16vectorIyNS_9allocatorIyEEE11__recommendB8ue170006Em, symObjAddr: 0x7F94, symBinAddr: 0x10000A1AC, symSize: 0xB4 }
  - { offsetInCU: 0x12872, offset: 0x12872, size: 0x8, addend: 0x0, symName: __ZNKSt3__16vectorIyNS_9allocatorIyEEE17__annotate_shrinkB8ue170006Em, symObjAddr: 0x80BC, symBinAddr: 0x10000A2D4, symSize: 0xB4 }
  - { offsetInCU: 0x128A7, offset: 0x128A7, size: 0x8, addend: 0x0, symName: __ZNSt3__16vectorIyNS_9allocatorIyEEE5clearB8ue170006Ev, symObjAddr: 0x8170, symBinAddr: 0x10000A388, symSize: 0x44 }
  - { offsetInCU: 0x128DC, offset: 0x128DC, size: 0x8, addend: 0x0, symName: __ZNK11event_countplERKS_, symObjAddr: 0x825C, symBinAddr: 0x10000A474, symSize: 0x20C }
  - { offsetInCU: 0x12912, offset: 0x12912, size: 0x8, addend: 0x0, symName: __ZN11event_countC1ENSt3__16chrono8durationIdNS0_5ratioILl1ELl1EEEEENS0_6vectorIyNS0_9allocatorIyEEEE, symObjAddr: 0x84D8, symBinAddr: 0x10000A6F0, symSize: 0x3C }
  - { offsetInCU: 0x12959, offset: 0x12959, size: 0x8, addend: 0x0, symName: __ZN11event_countC2ENSt3__16chrono8durationIdNS0_5ratioILl1ELl1EEEEENS0_6vectorIyNS0_9allocatorIyEEEE, symObjAddr: 0x8514, symBinAddr: 0x10000A72C, symSize: 0x44 }
...
